---
triple:          'x86_64-apple-darwin'
binary-path:     '/Volumes/SAMSUNG T5/Documents/GraphAlgorithmInC-/adjacencyMatrix'
relocations:
  - { offsetInCU: 0x42DD, offset: 0x42DD, size: 0x8, addend: 0x0, symName: __ZNSt3__113__fill_n_trueB8ue170006INS_6vectorIbNS_9allocatorIbEEEEEEvNS_14__bit_iteratorIT_Lb0EXLi0EEEENS6_9size_typeE, symObjAddr: 0x2290, symBinAddr: 0x1000036B0, symSize: 0x140 }
  - { offsetInCU: 0x43A3, offset: 0x43A3, size: 0x8, addend: 0x0, symName: __ZNSt3__114__fill_n_falseB8ue170006INS_6vectorIbNS_9allocatorIbEEEEEEvNS_14__bit_iteratorIT_Lb0EXLi0EEEENS6_9size_typeE, symObjAddr: 0x2400, symBinAddr: 0x100003820, symSize: 0x140 }
  - { offsetInCU: 0x7C07, offset: 0x7C07, size: 0x8, addend: 0x0, symName: __ZNSt3__124__put_character_sequenceB8ue170006IcNS_11char_traitsIcEEEERNS_13basic_ostreamIT_T0_EES7_PKS4_m, symObjAddr: 0x63B0, symBinAddr: 0x1000077D0, symSize: 0x1F0 }
  - { offsetInCU: 0xB40F, offset: 0xB40F, size: 0x8, addend: 0x0, symName: __ZNSt3__1neB8ue170006IPNS_4pairIiiEEEEbRKNS_11__wrap_iterIT_EES8_, symObjAddr: 0x13C0, symBinAddr: 0x1000027E0, symSize: 0x30 }
  - { offsetInCU: 0xB452, offset: 0xB452, size: 0x8, addend: 0x0, symName: __ZNSt3__13getB8ue170006ILm0EiiEEONS_13tuple_elementIXT_ENS_4pairIT0_T1_EEE4typeEOS5_, symObjAddr: 0x1410, symBinAddr: 0x100002830, symSize: 0x20 }
  - { offsetInCU: 0xB49C, offset: 0xB49C, size: 0x8, addend: 0x0, symName: __ZNSt3__13getB8ue170006ILm1EiiEEONS_13tuple_elementIXT_ENS_4pairIT0_T1_EEE4typeEOS5_, symObjAddr: 0x1430, symBinAddr: 0x100002850, symSize: 0x20 }
  - { offsetInCU: 0xB4E6, offset: 0xB4E6, size: 0x8, addend: 0x0, symName: __ZNSt3__1lsB8ue170006INS_11char_traitsIcEEEERNS_13basic_ostreamIcT_EES6_PKc, symObjAddr: 0x14B0, symBinAddr: 0x1000028D0, symSize: 0x40 }
  - { offsetInCU: 0xB52C, offset: 0xB52C, size: 0x8, addend: 0x0, symName: __ZNSt3__14endlB8ue170006IcNS_11char_traitsIcEEEERNS_13basic_ostreamIT_T0_EES7_, symObjAddr: 0x1510, symBinAddr: 0x100002930, symSize: 0x50 }
  - { offsetInCU: 0xB56C, offset: 0xB56C, size: 0x8, addend: 0x0, symName: __ZNSt3__19boolalphaB8ue170006ERNS_8ios_baseE, symObjAddr: 0x1610, symBinAddr: 0x100002A30, symSize: 0x30 }
  - { offsetInCU: 0xB59A, offset: 0xB59A, size: 0x8, addend: 0x0, symName: __ZNSt3__110make_tupleB8ue170006IJiiiEEENS_5tupleIJDpNS_18__unwrap_ref_decayIT_E4typeEEEEDpOS3_, symObjAddr: 0x16E0, symBinAddr: 0x100002B00, symSize: 0x50 }
  - { offsetInCU: 0xB5FB, offset: 0xB5FB, size: 0x8, addend: 0x0, symName: __ZNSt3__1neB8ue170006IPNS_5tupleIJiiiEEEEEbRKNS_11__wrap_iterIT_EES8_, symObjAddr: 0x17C0, symBinAddr: 0x100002BE0, symSize: 0x30 }
  - { offsetInCU: 0xB63E, offset: 0xB63E, size: 0x8, addend: 0x0, symName: __ZNSt3__13getB8ue170006ILm0EJiiiEEEONS_13tuple_elementIXT_ENS_5tupleIJDpT0_EEEE4typeEOS5_, symObjAddr: 0x1810, symBinAddr: 0x100002C30, symSize: 0x20 }
  - { offsetInCU: 0xB68B, offset: 0xB68B, size: 0x8, addend: 0x0, symName: __ZNSt3__13getB8ue170006ILm1EJiiiEEEONS_13tuple_elementIXT_ENS_5tupleIJDpT0_EEEE4typeEOS5_, symObjAddr: 0x1830, symBinAddr: 0x100002C50, symSize: 0x20 }
  - { offsetInCU: 0xB6D8, offset: 0xB6D8, size: 0x8, addend: 0x0, symName: __ZNSt3__13getB8ue170006ILm2EJiiiEEEONS_13tuple_elementIXT_ENS_5tupleIJDpT0_EEEE4typeEOS5_, symObjAddr: 0x1850, symBinAddr: 0x100002C70, symSize: 0x20 }
  - { offsetInCU: 0xB725, offset: 0xB725, size: 0x8, addend: 0x0, symName: __ZNSt3__1eqB8ue170006IPNS_4pairIiiEEEEbRKNS_11__wrap_iterIT_EES8_, symObjAddr: 0x1940, symBinAddr: 0x100002D60, symSize: 0x40 }
  - { offsetInCU: 0xB7E2, offset: 0xB7E2, size: 0x8, addend: 0x0, symName: __ZNSt3__119__allocate_at_leastB8ue170006INS_9allocatorImEEEENS_19__allocation_resultINS_16allocator_traitsIT_E7pointerEEERS5_m, symObjAddr: 0x1DB0, symBinAddr: 0x1000031D0, symSize: 0x40 }
  - { offsetInCU: 0xBA11, offset: 0xBA11, size: 0x8, addend: 0x0, symName: __ZNSt3__120__throw_length_errorB8ue170006EPKc, symObjAddr: 0x1F20, symBinAddr: 0x100003340, symSize: 0x70 }
  - { offsetInCU: 0xBA3B, offset: 0xBA3B, size: 0x8, addend: 0x0, symName: __ZNSt3__117__libcpp_allocateB8ue170006Emm, symObjAddr: 0x2090, symBinAddr: 0x1000034B0, symSize: 0x60 }
  - { offsetInCU: 0xBA95, offset: 0xBA95, size: 0x8, addend: 0x0, symName: __ZNSt3__124__is_overaligned_for_newB8ue170006Em, symObjAddr: 0x20F0, symBinAddr: 0x100003510, symSize: 0x20 }
  - { offsetInCU: 0xBAC3, offset: 0xBAC3, size: 0x8, addend: 0x0, symName: __ZNSt3__121__libcpp_operator_newB8ue170006IJmSt11align_val_tEEEPvDpT_, symObjAddr: 0x2110, symBinAddr: 0x100003530, symSize: 0x30 }
  - { offsetInCU: 0xBB10, offset: 0xBB10, size: 0x8, addend: 0x0, symName: __ZNSt3__121__libcpp_operator_newB8ue170006IJmEEEPvDpT_, symObjAddr: 0x2140, symBinAddr: 0x100003560, symSize: 0x20 }
  - { offsetInCU: 0xBB49, offset: 0xBB49, size: 0x8, addend: 0x0, symName: __ZNSt3__16fill_nB8ue170006INS_6vectorIbNS_9allocatorIbEEEEEEvNS_14__bit_iteratorIT_Lb0EXLi0EEEENS6_9size_typeEb, symObjAddr: 0x21C0, symBinAddr: 0x1000035E0, symSize: 0x80 }
  - { offsetInCU: 0xBB9B, offset: 0xBB9B, size: 0x8, addend: 0x0, symName: __ZNSt3__13minB8ue170006ImEERKT_S3_S3_, symObjAddr: 0x2540, symBinAddr: 0x100003960, symSize: 0x30 }
  - { offsetInCU: 0xBBDE, offset: 0xBBDE, size: 0x8, addend: 0x0, symName: __ZNSt3__16fill_nB8ue170006IPmmmEET_S2_T0_RKT1_, symObjAddr: 0x2570, symBinAddr: 0x100003990, symSize: 0x40 }
  - { offsetInCU: 0xBC41, offset: 0xBC41, size: 0x8, addend: 0x0, symName: __ZNSt3__112__to_addressB8ue170006ImEEPT_S2_, symObjAddr: 0x25B0, symBinAddr: 0x1000039D0, symSize: 0x10 }
  - { offsetInCU: 0xBC76, offset: 0xBC76, size: 0x8, addend: 0x0, symName: __ZNSt3__13minB8ue170006ImNS_6__lessIvvEEEERKT_S5_S5_T0_, symObjAddr: 0x25C0, symBinAddr: 0x1000039E0, symSize: 0x50 }
  - { offsetInCU: 0xBD15, offset: 0xBD15, size: 0x8, addend: 0x0, symName: __ZNSt3__18__fill_nB8ue170006IPmmmEET_S2_T0_RKT1_, symObjAddr: 0x2640, symBinAddr: 0x100003A60, symSize: 0x50 }
  - { offsetInCU: 0xBD78, offset: 0xBD78, size: 0x8, addend: 0x0, symName: __ZNSt3__121__convert_to_integralB8ue170006Em, symObjAddr: 0x2690, symBinAddr: 0x100003AB0, symSize: 0x10 }
  - { offsetInCU: 0xBDA4, offset: 0xBDA4, size: 0x8, addend: 0x0, symName: __ZNSt3__16fill_nB8ue170006IPmmiEET_S2_T0_RKT1_, symObjAddr: 0x26D0, symBinAddr: 0x100003AF0, symSize: 0x40 }
  - { offsetInCU: 0xBE07, offset: 0xBE07, size: 0x8, addend: 0x0, symName: __ZNSt3__18__fill_nB8ue170006IPmmiEET_S2_T0_RKT1_, symObjAddr: 0x2710, symBinAddr: 0x100003B30, symSize: 0x50 }
  - { offsetInCU: 0xBEA3, offset: 0xBEA3, size: 0x8, addend: 0x0, symName: __ZNSt3__1eqB8ue170006IPNS_5tupleIJiiiEEEEEbRKNS_11__wrap_iterIT_EES8_, symObjAddr: 0x2AF0, symBinAddr: 0x100003F10, symSize: 0x40 }
  - { offsetInCU: 0xBEE6, offset: 0xBEE6, size: 0x8, addend: 0x0, symName: __ZNSt3__119__libcpp_deallocateB8ue170006EPvmm, symObjAddr: 0x2D30, symBinAddr: 0x100004150, symSize: 0x60 }
  - { offsetInCU: 0xBF4B, offset: 0xBF4B, size: 0x8, addend: 0x0, symName: __ZNSt3__127__do_deallocate_handle_sizeB8ue170006IJSt11align_val_tEEEvPvmDpT_, symObjAddr: 0x2D90, symBinAddr: 0x1000041B0, symSize: 0x30 }
  - { offsetInCU: 0xBF9E, offset: 0xBF9E, size: 0x8, addend: 0x0, symName: __ZNSt3__127__do_deallocate_handle_sizeB8ue170006IJEEEvPvmDpT_, symObjAddr: 0x2DC0, symBinAddr: 0x1000041E0, symSize: 0x20 }
  - { offsetInCU: 0xBFDC, offset: 0xBFDC, size: 0x8, addend: 0x0, symName: __ZNSt3__124__libcpp_operator_deleteB8ue170006IJPvSt11align_val_tEEEvDpT_, symObjAddr: 0x2DE0, symBinAddr: 0x100004200, symSize: 0x30 }
  - { offsetInCU: 0xC025, offset: 0xC025, size: 0x8, addend: 0x0, symName: __ZNSt3__124__libcpp_operator_deleteB8ue170006IJPvEEEvDpT_, symObjAddr: 0x2E10, symBinAddr: 0x100004230, symSize: 0x20 }
  - { offsetInCU: 0xC05A, offset: 0xC05A, size: 0x8, addend: 0x0, symName: __ZNSt3__122__make_exception_guardB8ue170006INS_6vectorIiNS_9allocatorIiEEE16__destroy_vectorEEENS_28__exception_guard_exceptionsIT_EES7_, symObjAddr: 0x2F40, symBinAddr: 0x100004360, symSize: 0x40 }
  - { offsetInCU: 0xC08F, offset: 0xC08F, size: 0x8, addend: 0x0, symName: __ZNSt3__119__allocate_at_leastB8ue170006INS_9allocatorIiEEEENS_19__allocation_resultINS_16allocator_traitsIT_E7pointerEEERS5_m, symObjAddr: 0x32F0, symBinAddr: 0x100004710, symSize: 0x40 }
  - { offsetInCU: 0xC2BC, offset: 0xC2BC, size: 0x8, addend: 0x0, symName: __ZNSt3__112__to_addressB8ue170006IiEEPT_S2_, symObjAddr: 0x35F0, symBinAddr: 0x100004A10, symSize: 0x10 }
  - { offsetInCU: 0xC2F1, offset: 0xC2F1, size: 0x8, addend: 0x0, symName: __ZNSt3__122__make_exception_guardB8ue170006INS_6vectorINS1_IiNS_9allocatorIiEEEENS2_IS4_EEE16__destroy_vectorEEENS_28__exception_guard_exceptionsIT_EES9_, symObjAddr: 0x3B80, symBinAddr: 0x100004FA0, symSize: 0x40 }
  - { offsetInCU: 0xC326, offset: 0xC326, size: 0x8, addend: 0x0, symName: __ZNSt3__119__allocate_at_leastB8ue170006INS_9allocatorINS_6vectorIiNS1_IiEEEEEEEENS_19__allocation_resultINS_16allocator_traitsIT_E7pointerEEERS8_m, symObjAddr: 0x3F30, symBinAddr: 0x100005350, symSize: 0x40 }
  - { offsetInCU: 0xC369, offset: 0xC369, size: 0x8, addend: 0x0, symName: __ZNSt3__112__to_addressB8ue170006INS_6vectorIiNS_9allocatorIiEEEEEEPT_S6_, symObjAddr: 0x4210, symBinAddr: 0x100005630, symSize: 0x10 }
  - { offsetInCU: 0xC39E, offset: 0xC39E, size: 0x8, addend: 0x0, symName: __ZNSt3__130__uninitialized_allocator_copyB8ue170006INS_9allocatorIiEEPiS3_S3_EET2_RT_T0_T1_S4_, symObjAddr: 0x4600, symBinAddr: 0x100005A20, symSize: 0x80 }
  - { offsetInCU: 0xC43B, offset: 0xC43B, size: 0x8, addend: 0x0, symName: __ZNSt3__114__unwrap_rangeB8ue170006IPiS1_EENS_4pairIT0_S3_EET_S5_, symObjAddr: 0x4680, symBinAddr: 0x100005AA0, symSize: 0x50 }
  - { offsetInCU: 0xC487, offset: 0xC487, size: 0x8, addend: 0x0, symName: __ZNSt3__135__uninitialized_allocator_copy_implB8ue170006INS_9allocatorIiEEiiiLPv0EEEPT2_RT_PT0_S9_S5_, symObjAddr: 0x46D0, symBinAddr: 0x100005AF0, symSize: 0x30 }
  - { offsetInCU: 0xC508, offset: 0xC508, size: 0x8, addend: 0x0, symName: __ZNSt3__113__unwrap_iterB8ue170006IPiNS_18__unwrap_iter_implIS1_Lb1EEELi0EEEDTclsrT0_8__unwrapclsr3stdE7declvalIT_EEEES5_, symObjAddr: 0x4700, symBinAddr: 0x100005B20, symSize: 0x20 }
  - { offsetInCU: 0xC54C, offset: 0xC54C, size: 0x8, addend: 0x0, symName: __ZNSt3__113__rewrap_iterB8ue170006IPiS1_NS_18__unwrap_iter_implIS1_Lb1EEEEET_S4_T0_, symObjAddr: 0x4720, symBinAddr: 0x100005B40, symSize: 0x40 }
  - { offsetInCU: 0xC5A1, offset: 0xC5A1, size: 0x8, addend: 0x0, symName: __ZNSt3__19make_pairB8ue170006IPiS1_EENS_4pairINS_18__unwrap_ref_decayIT_E4typeENS3_IT0_E4typeEEEOS4_OS7_, symObjAddr: 0x4760, symBinAddr: 0x100005B80, symSize: 0x30 }
  - { offsetInCU: 0xC6F3, offset: 0xC6F3, size: 0x8, addend: 0x0, symName: __ZNSt3__14copyB8ue170006IPiS1_EET0_T_S3_S2_, symObjAddr: 0x47F0, symBinAddr: 0x100005C10, symSize: 0x40 }
  - { offsetInCU: 0xC74D, offset: 0xC74D, size: 0x8, addend: 0x0, symName: __ZNSt3__16__copyB8ue170006INS_17_ClassicAlgPolicyEPiS2_S2_EENS_4pairIT0_T2_EES4_T1_S5_, symObjAddr: 0x4830, symBinAddr: 0x100005C50, symSize: 0x40 }
  - { offsetInCU: 0xC7B9, offset: 0xC7B9, size: 0x8, addend: 0x0, symName: __ZNSt3__123__dispatch_copy_or_moveB8ue170006INS_17_ClassicAlgPolicyENS_11__copy_loopIS1_EENS_14__copy_trivialEPiS5_S5_EENS_4pairIT2_T4_EES7_T3_S8_, symObjAddr: 0x4870, symBinAddr: 0x100005C90, symSize: 0x40 }
  - { offsetInCU: 0xC837, offset: 0xC837, size: 0x8, addend: 0x0, symName: __ZNSt3__121__unwrap_and_dispatchB8ue170006INS_10__overloadINS_11__copy_loopINS_17_ClassicAlgPolicyEEENS_14__copy_trivialEEEPiS7_S7_Li0EEENS_4pairIT0_T2_EES9_T1_SA_, symObjAddr: 0x48B0, symBinAddr: 0x100005CD0, symSize: 0xB0 }
  - { offsetInCU: 0xC90C, offset: 0xC90C, size: 0x8, addend: 0x0, symName: __ZNSt3__114__rewrap_rangeB8ue170006IPiS1_EET_S2_T0_, symObjAddr: 0x49A0, symBinAddr: 0x100005DC0, symSize: 0x30 }
  - { offsetInCU: 0xC958, offset: 0xC958, size: 0x8, addend: 0x0, symName: __ZNSt3__119__copy_trivial_implB8ue170006IiiEENS_4pairIPT_PT0_EES3_S3_S5_, symObjAddr: 0x49D0, symBinAddr: 0x100005DF0, symSize: 0x70 }
  - { offsetInCU: 0xC9C0, offset: 0xC9C0, size: 0x8, addend: 0x0, symName: __ZNSt3__119__constexpr_memmoveB8ue170006IiiLi0EEEPT_S2_PT0_NS_15__element_countE, symObjAddr: 0x4A40, symBinAddr: 0x100005E60, symSize: 0x50 }
  - { offsetInCU: 0xCA2E, offset: 0xCA2E, size: 0x8, addend: 0x0, symName: __ZNSt3__19make_pairB8ue170006IRPiS1_EENS_4pairINS_18__unwrap_ref_decayIT_E4typeENS4_IT0_E4typeEEEOS5_OS8_, symObjAddr: 0x4A90, symBinAddr: 0x100005EB0, symSize: 0x30 }
  - { offsetInCU: 0xCAD0, offset: 0xCAD0, size: 0x8, addend: 0x0, symName: __ZNSt3__122__make_exception_guardB8ue170006INS_6vectorINS_4pairIiiEENS_9allocatorIS3_EEE16__destroy_vectorEEENS_28__exception_guard_exceptionsIT_EES9_, symObjAddr: 0x5040, symBinAddr: 0x100006460, symSize: 0x40 }
  - { offsetInCU: 0xCB05, offset: 0xCB05, size: 0x8, addend: 0x0, symName: __ZNSt3__119__allocate_at_leastB8ue170006INS_9allocatorINS_4pairIiiEEEEEENS_19__allocation_resultINS_16allocator_traitsIT_E7pointerEEERS7_m, symObjAddr: 0x5420, symBinAddr: 0x100006840, symSize: 0x40 }
  - { offsetInCU: 0xCB48, offset: 0xCB48, size: 0x8, addend: 0x0, symName: __ZNSt3__112__to_addressB8ue170006INS_4pairIiiEEEEPT_S4_, symObjAddr: 0x5700, symBinAddr: 0x100006B20, symSize: 0x10 }
  - { offsetInCU: 0xCB7D, offset: 0xCB7D, size: 0x8, addend: 0x0, symName: __ZNSt3__130__uninitialized_allocator_copyB8ue170006INS_9allocatorINS_4pairIiiEEEEPKS3_S6_PS3_EET2_RT_T0_T1_S8_, symObjAddr: 0x5790, symBinAddr: 0x100006BB0, symSize: 0x80 }
  - { offsetInCU: 0xCC1A, offset: 0xCC1A, size: 0x8, addend: 0x0, symName: __ZNSt3__114__unwrap_rangeB8ue170006IPKNS_4pairIiiEES4_EENS1_IT0_S5_EET_S7_, symObjAddr: 0x5870, symBinAddr: 0x100006C90, symSize: 0x50 }
  - { offsetInCU: 0xCC66, offset: 0xCC66, size: 0x8, addend: 0x0, symName: __ZNSt3__135__uninitialized_allocator_copy_implB8ue170006INS_9allocatorINS_4pairIiiEEEEPKS3_S6_PS3_EET2_RT_T0_T1_S8_, symObjAddr: 0x58C0, symBinAddr: 0x100006CE0, symSize: 0x100 }
  - { offsetInCU: 0xCD04, offset: 0xCD04, size: 0x8, addend: 0x0, symName: __ZNSt3__113__unwrap_iterB8ue170006IPNS_4pairIiiEENS_18__unwrap_iter_implIS3_Lb1EEELi0EEEDTclsrT0_8__unwrapclsr3stdE7declvalIT_EEEES7_, symObjAddr: 0x59C0, symBinAddr: 0x100006DE0, symSize: 0x20 }
  - { offsetInCU: 0xCD48, offset: 0xCD48, size: 0x8, addend: 0x0, symName: __ZNSt3__113__rewrap_iterB8ue170006IPNS_4pairIiiEES3_NS_18__unwrap_iter_implIS3_Lb1EEEEET_S6_T0_, symObjAddr: 0x59E0, symBinAddr: 0x100006E00, symSize: 0x40 }
  - { offsetInCU: 0xCD9D, offset: 0xCD9D, size: 0x8, addend: 0x0, symName: __ZNSt3__19make_pairB8ue170006IPKNS_4pairIiiEES4_EENS1_INS_18__unwrap_ref_decayIT_E4typeENS5_IT0_E4typeEEEOS6_OS9_, symObjAddr: 0x5A20, symBinAddr: 0x100006E40, symSize: 0x30 }
  - { offsetInCU: 0xCDEC, offset: 0xCDEC, size: 0x8, addend: 0x0, symName: __ZNSt3__113__unwrap_iterB8ue170006IPKNS_4pairIiiEENS_18__unwrap_iter_implIS4_Lb1EEELi0EEEDTclsrT0_8__unwrapclsr3stdE7declvalIT_EEEES8_, symObjAddr: 0x5A50, symBinAddr: 0x100006E70, symSize: 0x20 }
  - { offsetInCU: 0xCF57, offset: 0xCF57, size: 0x8, addend: 0x0, symName: __ZNSt3__112__to_addressB8ue170006IKNS_4pairIiiEEEEPT_S5_, symObjAddr: 0x5AF0, symBinAddr: 0x100006F10, symSize: 0x10 }
  - { offsetInCU: 0xCF8C, offset: 0xCF8C, size: 0x8, addend: 0x0, symName: __ZNSt3__122__make_exception_guardB8ue170006INS_29_AllocatorDestroyRangeReverseINS_9allocatorINS_4pairIiiEEEEPS4_EEEENS_28__exception_guard_exceptionsIT_EES9_, symObjAddr: 0x5B00, symBinAddr: 0x100006F20, symSize: 0x60 }
  - { offsetInCU: 0xCFC1, offset: 0xCFC1, size: 0x8, addend: 0x0, symName: __ZNSt3__119__allocator_destroyB8ue170006INS_9allocatorINS_4pairIiiEEEENS_16reverse_iteratorIPS3_EES7_EEvRT_T0_T1_, symObjAddr: 0x5D80, symBinAddr: 0x1000071A0, symSize: 0x70 }
  - { offsetInCU: 0xD024, offset: 0xD024, size: 0x8, addend: 0x0, symName: __ZNSt3__1neB8ue170006IPNS_4pairIiiEES3_EEbRKNS_16reverse_iteratorIT_EERKNS4_IT0_EE, symObjAddr: 0x5E20, symBinAddr: 0x100007240, symSize: 0x40 }
  - { offsetInCU: 0xD070, offset: 0xD070, size: 0x8, addend: 0x0, symName: __ZNSt3__112__to_addressB8ue170006INS_16reverse_iteratorIPNS_4pairIiiEEEEvEEu7__decayIDTclsr19__to_address_helperIT_EE6__callclsr3stdE7declvalIRKS6_EEEEES8_, symObjAddr: 0x5E90, symBinAddr: 0x1000072B0, symSize: 0x20 }
  - { offsetInCU: 0xD122, offset: 0xD122, size: 0x8, addend: 0x0, symName: __ZNSt3__116__pad_and_outputB8ue170006IcNS_11char_traitsIcEEEENS_19ostreambuf_iteratorIT_T0_EES6_PKS4_S8_S8_RNS_8ios_baseES4_, symObjAddr: 0x65F0, symBinAddr: 0x100007A10, symSize: 0x220 }
  - { offsetInCU: 0xD1F2, offset: 0xD1F2, size: 0x8, addend: 0x0, symName: __ZNSt3__112__to_addressB8ue170006IcEEPT_S2_, symObjAddr: 0x6B10, symBinAddr: 0x100007F30, symSize: 0x10 }
  - { offsetInCU: 0xD25A, offset: 0xD25A, size: 0x8, addend: 0x0, symName: __ZNSt3__19use_facetB8ue170006INS_5ctypeIcEEEERKT_RKNS_6localeE, symObjAddr: 0x6DA0, symBinAddr: 0x1000081C0, symSize: 0x30 }
  - { offsetInCU: 0xD727, offset: 0xD727, size: 0x8, addend: 0x0, symName: __ZNSt3__118__constexpr_strlenB8ue170006EPKc, symObjAddr: 0x6E30, symBinAddr: 0x100008250, symSize: 0x20 }
  - { offsetInCU: 0xD753, offset: 0xD753, size: 0x8, addend: 0x0, symName: __ZNSt3__122__make_exception_guardB8ue170006INS_6vectorINS_5tupleIJiiiEEENS_9allocatorIS3_EEE16__destroy_vectorEEENS_28__exception_guard_exceptionsIT_EES9_, symObjAddr: 0x6F90, symBinAddr: 0x1000083B0, symSize: 0x40 }
  - { offsetInCU: 0xD788, offset: 0xD788, size: 0x8, addend: 0x0, symName: __ZNSt3__119__allocate_at_leastB8ue170006INS_9allocatorINS_5tupleIJiiiEEEEEEENS_19__allocation_resultINS_16allocator_traitsIT_E7pointerEEERS7_m, symObjAddr: 0x7370, symBinAddr: 0x100008790, symSize: 0x40 }
  - { offsetInCU: 0xD7CB, offset: 0xD7CB, size: 0x8, addend: 0x0, symName: __ZNSt3__112__to_addressB8ue170006INS_5tupleIJiiiEEEEEPT_S4_, symObjAddr: 0x7650, symBinAddr: 0x100008A70, symSize: 0x10 }
  - { offsetInCU: 0xD800, offset: 0xD800, size: 0x8, addend: 0x0, symName: __ZNSt3__130__uninitialized_allocator_copyB8ue170006INS_9allocatorINS_5tupleIJiiiEEEEEPKS3_S6_PS3_EET2_RT_T0_T1_S8_, symObjAddr: 0x76E0, symBinAddr: 0x100008B00, symSize: 0x80 }
  - { offsetInCU: 0xD89D, offset: 0xD89D, size: 0x8, addend: 0x0, symName: __ZNSt3__114__unwrap_rangeB8ue170006IPKNS_5tupleIJiiiEEES4_EENS_4pairIT0_S6_EET_S8_, symObjAddr: 0x77C0, symBinAddr: 0x100008BE0, symSize: 0x50 }
  - { offsetInCU: 0xD8E9, offset: 0xD8E9, size: 0x8, addend: 0x0, symName: __ZNSt3__135__uninitialized_allocator_copy_implB8ue170006INS_9allocatorINS_5tupleIJiiiEEEEEPKS3_S6_PS3_EET2_RT_T0_T1_S8_, symObjAddr: 0x7810, symBinAddr: 0x100008C30, symSize: 0x100 }
  - { offsetInCU: 0xD987, offset: 0xD987, size: 0x8, addend: 0x0, symName: __ZNSt3__113__unwrap_iterB8ue170006IPNS_5tupleIJiiiEEENS_18__unwrap_iter_implIS3_Lb1EEELi0EEEDTclsrT0_8__unwrapclsr3stdE7declvalIT_EEEES7_, symObjAddr: 0x7910, symBinAddr: 0x100008D30, symSize: 0x20 }
  - { offsetInCU: 0xD9CB, offset: 0xD9CB, size: 0x8, addend: 0x0, symName: __ZNSt3__113__rewrap_iterB8ue170006IPNS_5tupleIJiiiEEES3_NS_18__unwrap_iter_implIS3_Lb1EEEEET_S6_T0_, symObjAddr: 0x7930, symBinAddr: 0x100008D50, symSize: 0x40 }
  - { offsetInCU: 0xDA20, offset: 0xDA20, size: 0x8, addend: 0x0, symName: __ZNSt3__19make_pairB8ue170006IPKNS_5tupleIJiiiEEES4_EENS_4pairINS_18__unwrap_ref_decayIT_E4typeENS6_IT0_E4typeEEEOS7_OSA_, symObjAddr: 0x7970, symBinAddr: 0x100008D90, symSize: 0x30 }
  - { offsetInCU: 0xDA6F, offset: 0xDA6F, size: 0x8, addend: 0x0, symName: __ZNSt3__113__unwrap_iterB8ue170006IPKNS_5tupleIJiiiEEENS_18__unwrap_iter_implIS4_Lb1EEELi0EEEDTclsrT0_8__unwrapclsr3stdE7declvalIT_EEEES8_, symObjAddr: 0x79A0, symBinAddr: 0x100008DC0, symSize: 0x20 }
  - { offsetInCU: 0xDBDA, offset: 0xDBDA, size: 0x8, addend: 0x0, symName: __ZNSt3__112__to_addressB8ue170006IKNS_5tupleIJiiiEEEEEPT_S5_, symObjAddr: 0x7A40, symBinAddr: 0x100008E60, symSize: 0x10 }
  - { offsetInCU: 0xDC0F, offset: 0xDC0F, size: 0x8, addend: 0x0, symName: __ZNSt3__122__make_exception_guardB8ue170006INS_29_AllocatorDestroyRangeReverseINS_9allocatorINS_5tupleIJiiiEEEEEPS4_EEEENS_28__exception_guard_exceptionsIT_EES9_, symObjAddr: 0x7A50, symBinAddr: 0x100008E70, symSize: 0x60 }
  - { offsetInCU: 0xDC44, offset: 0xDC44, size: 0x8, addend: 0x0, symName: __ZNSt3__119__allocator_destroyB8ue170006INS_9allocatorINS_5tupleIJiiiEEEEENS_16reverse_iteratorIPS3_EES7_EEvRT_T0_T1_, symObjAddr: 0x7CE0, symBinAddr: 0x100009100, symSize: 0x70 }
  - { offsetInCU: 0xDCA7, offset: 0xDCA7, size: 0x8, addend: 0x0, symName: __ZNSt3__1neB8ue170006IPNS_5tupleIJiiiEEES3_EEbRKNS_16reverse_iteratorIT_EERKNS4_IT0_EE, symObjAddr: 0x7D80, symBinAddr: 0x1000091A0, symSize: 0x40 }
  - { offsetInCU: 0xDCF3, offset: 0xDCF3, size: 0x8, addend: 0x0, symName: __ZNSt3__112__to_addressB8ue170006INS_16reverse_iteratorIPNS_5tupleIJiiiEEEEEvEEu7__decayIDTclsr19__to_address_helperIT_EE6__callclsr3stdE7declvalIRKS6_EEEEES8_, symObjAddr: 0x7DF0, symBinAddr: 0x100009210, symSize: 0x20 }
  - { offsetInCU: 0xE3B3, offset: 0xE3B3, size: 0x8, addend: 0x0, symName: __ZSt28__throw_bad_array_new_lengthB8ue170006v, symObjAddr: 0x2050, symBinAddr: 0x100003470, symSize: 0x40 }
  - { offsetInCU: 0x11211, offset: 0x11211, size: 0x8, addend: 0x0, symName: _main, symObjAddr: 0x0, symBinAddr: 0x100001420, symSize: 0x1280 }
  - { offsetInCU: 0x114B5, offset: 0x114B5, size: 0x8, addend: 0x0, symName: __ZNSt3__16vectorIiNS_9allocatorIiEEEC1EmRKi, symObjAddr: 0x1280, symBinAddr: 0x1000026A0, symSize: 0x30 }
  - { offsetInCU: 0x114FF, offset: 0x114FF, size: 0x8, addend: 0x0, symName: __ZNSt3__16vectorINS0_IiNS_9allocatorIiEEEENS1_IS3_EEEC1EmRKS3_, symObjAddr: 0x12B0, symBinAddr: 0x1000026D0, symSize: 0x30 }
  - { offsetInCU: 0x11549, offset: 0x11549, size: 0x8, addend: 0x0, symName: __ZNSt3__16vectorIiNS_9allocatorIiEEED1B8ue170006Ev, symObjAddr: 0x12E0, symBinAddr: 0x100002700, symSize: 0x20 }
  - { offsetInCU: 0x11578, offset: 0x11578, size: 0x8, addend: 0x0, symName: __ZNSt3__14pairIiiEC1B8ue170006IiiLPv0EEEOT_OT0_, symObjAddr: 0x1300, symBinAddr: 0x100002720, symSize: 0x30 }
  - { offsetInCU: 0x115D6, offset: 0x115D6, size: 0x8, addend: 0x0, symName: __ZNSt3__16vectorINS_4pairIiiEENS_9allocatorIS2_EEEC1B8ue170006ESt16initializer_listIS2_E, symObjAddr: 0x1330, symBinAddr: 0x100002750, symSize: 0x30 }
  - { offsetInCU: 0x11611, offset: 0x11611, size: 0x8, addend: 0x0, symName: __ZNSt3__16vectorINS_4pairIiiEENS_9allocatorIS2_EEE5beginB8ue170006Ev, symObjAddr: 0x1360, symBinAddr: 0x100002780, symSize: 0x30 }
  - { offsetInCU: 0x11639, offset: 0x11639, size: 0x8, addend: 0x0, symName: __ZNSt3__16vectorINS_4pairIiiEENS_9allocatorIS2_EEE3endB8ue170006Ev, symObjAddr: 0x1390, symBinAddr: 0x1000027B0, symSize: 0x30 }
  - { offsetInCU: 0x11661, offset: 0x11661, size: 0x8, addend: 0x0, symName: __ZNKSt3__111__wrap_iterIPNS_4pairIiiEEEdeB8ue170006Ev, symObjAddr: 0x13F0, symBinAddr: 0x100002810, symSize: 0x20 }
  - { offsetInCU: 0x11687, offset: 0x11687, size: 0x8, addend: 0x0, symName: __ZNSt3__16vectorINS0_IiNS_9allocatorIiEEEENS1_IS3_EEEixB8ue170006Em, symObjAddr: 0x1450, symBinAddr: 0x100002870, symSize: 0x20 }
  - { offsetInCU: 0x116BE, offset: 0x116BE, size: 0x8, addend: 0x0, symName: __ZNSt3__16vectorIiNS_9allocatorIiEEEixB8ue170006Em, symObjAddr: 0x1470, symBinAddr: 0x100002890, symSize: 0x20 }
  - { offsetInCU: 0x116F5, offset: 0x116F5, size: 0x8, addend: 0x0, symName: __ZNSt3__111__wrap_iterIPNS_4pairIiiEEEppB8ue170006Ev, symObjAddr: 0x1490, symBinAddr: 0x1000028B0, symSize: 0x20 }
  - { offsetInCU: 0x1171B, offset: 0x1171B, size: 0x8, addend: 0x0, symName: __ZNSt3__113basic_ostreamIcNS_11char_traitsIcEEElsB8ue170006EPFRS3_S4_E, symObjAddr: 0x14F0, symBinAddr: 0x100002910, symSize: 0x20 }
  - { offsetInCU: 0x117EE, offset: 0x117EE, size: 0x8, addend: 0x0, symName: __ZN15AdjacencyMatrixC1Ei, symObjAddr: 0x1560, symBinAddr: 0x100002980, symSize: 0x30 }
  - { offsetInCU: 0x11826, offset: 0x11826, size: 0x8, addend: 0x0, symName: __ZN15AdjacencyMatrix7addEdgeEii, symObjAddr: 0x1590, symBinAddr: 0x1000029B0, symSize: 0x50 }
  - { offsetInCU: 0x11868, offset: 0x11868, size: 0x8, addend: 0x0, symName: __ZNSt3__113basic_ostreamIcNS_11char_traitsIcEEElsB8ue170006EPFRNS_8ios_baseES5_E, symObjAddr: 0x15E0, symBinAddr: 0x100002A00, symSize: 0x30 }
  - { offsetInCU: 0x1189C, offset: 0x1189C, size: 0x8, addend: 0x0, symName: __ZN15AdjacencyMatrix7getEdgeEii, symObjAddr: 0x1640, symBinAddr: 0x100002A60, symSize: 0x50 }
  - { offsetInCU: 0x118DE, offset: 0x118DE, size: 0x8, addend: 0x0, symName: __ZN15AdjacencyMatrix10removeEdgeEii, symObjAddr: 0x1690, symBinAddr: 0x100002AB0, symSize: 0x50 }
  - { offsetInCU: 0x11920, offset: 0x11920, size: 0x8, addend: 0x0, symName: __ZNSt3__16vectorINS_5tupleIJiiiEEENS_9allocatorIS2_EEEC1B8ue170006ESt16initializer_listIS2_E, symObjAddr: 0x1730, symBinAddr: 0x100002B50, symSize: 0x30 }
  - { offsetInCU: 0x1195B, offset: 0x1195B, size: 0x8, addend: 0x0, symName: __ZNSt3__16vectorINS_5tupleIJiiiEEENS_9allocatorIS2_EEE5beginB8ue170006Ev, symObjAddr: 0x1760, symBinAddr: 0x100002B80, symSize: 0x30 }
  - { offsetInCU: 0x11983, offset: 0x11983, size: 0x8, addend: 0x0, symName: __ZNSt3__16vectorINS_5tupleIJiiiEEENS_9allocatorIS2_EEE3endB8ue170006Ev, symObjAddr: 0x1790, symBinAddr: 0x100002BB0, symSize: 0x30 }
  - { offsetInCU: 0x119AB, offset: 0x119AB, size: 0x8, addend: 0x0, symName: __ZNKSt3__111__wrap_iterIPNS_5tupleIJiiiEEEEdeB8ue170006Ev, symObjAddr: 0x17F0, symBinAddr: 0x100002C10, symSize: 0x20 }
  - { offsetInCU: 0x119D1, offset: 0x119D1, size: 0x8, addend: 0x0, symName: __ZNSt3__111__wrap_iterIPNS_5tupleIJiiiEEEEppB8ue170006Ev, symObjAddr: 0x1870, symBinAddr: 0x100002C90, symSize: 0x20 }
  - { offsetInCU: 0x119F7, offset: 0x119F7, size: 0x8, addend: 0x0, symName: __ZNSt3__16vectorINS_5tupleIJiiiEEENS_9allocatorIS2_EEED1B8ue170006Ev, symObjAddr: 0x1890, symBinAddr: 0x100002CB0, symSize: 0x20 }
  - { offsetInCU: 0x11A21, offset: 0x11A21, size: 0x8, addend: 0x0, symName: __ZNSt3__16vectorINS0_IiNS_9allocatorIiEEEENS1_IS3_EEED1B8ue170006Ev, symObjAddr: 0x18B0, symBinAddr: 0x100002CD0, symSize: 0x20 }
  - { offsetInCU: 0x11A4B, offset: 0x11A4B, size: 0x8, addend: 0x0, symName: __ZNSt3__16vectorINS_4pairIiiEENS_9allocatorIS2_EEED1B8ue170006Ev, symObjAddr: 0x18D0, symBinAddr: 0x100002CF0, symSize: 0x20 }
  - { offsetInCU: 0x11A75, offset: 0x11A75, size: 0x8, addend: 0x0, symName: __ZN15AdjacencyMatrixD1Ev, symObjAddr: 0x18F0, symBinAddr: 0x100002D10, symSize: 0x20 }
  - { offsetInCU: 0x11AA1, offset: 0x11AA1, size: 0x8, addend: 0x0, symName: __ZNSt3__14pairIiiEC2B8ue170006IiiLPv0EEEOT_OT0_, symObjAddr: 0x1910, symBinAddr: 0x100002D30, symSize: 0x30 }
  - { offsetInCU: 0x11AFF, offset: 0x11AFF, size: 0x8, addend: 0x0, symName: __ZNKSt3__111__wrap_iterIPNS_4pairIiiEEE4baseB8ue170006Ev, symObjAddr: 0x1980, symBinAddr: 0x100002DA0, symSize: 0x20 }
  - { offsetInCU: 0x11B25, offset: 0x11B25, size: 0x8, addend: 0x0, symName: __ZNSt3__110__get_pairILm0EE3getB8ue170006IiiEEOT_ONS_4pairIS3_T0_EE, symObjAddr: 0x19A0, symBinAddr: 0x100002DC0, symSize: 0x10 }
  - { offsetInCU: 0x11B5B, offset: 0x11B5B, size: 0x8, addend: 0x0, symName: __ZNSt3__110__get_pairILm1EE3getB8ue170006IiiEEOT0_ONS_4pairIT_S3_EE, symObjAddr: 0x19B0, symBinAddr: 0x100002DD0, symSize: 0x20 }
  - { offsetInCU: 0x11B91, offset: 0x11B91, size: 0x8, addend: 0x0, symName: __ZN15AdjacencyMatrixC2Ei, symObjAddr: 0x19D0, symBinAddr: 0x100002DF0, symSize: 0x40 }
  - { offsetInCU: 0x11BC9, offset: 0x11BC9, size: 0x8, addend: 0x0, symName: __ZNSt3__16vectorIbNS_9allocatorIbEEEC1EmRKb, symObjAddr: 0x1A10, symBinAddr: 0x100002E30, symSize: 0x30 }
  - { offsetInCU: 0x11C13, offset: 0x11C13, size: 0x8, addend: 0x0, symName: __ZNSt3__16vectorIbNS_9allocatorIbEEEC2EmRKb, symObjAddr: 0x1A40, symBinAddr: 0x100002E60, symSize: 0x80 }
  - { offsetInCU: 0x11C62, offset: 0x11C62, size: 0x8, addend: 0x0, symName: __ZNSt3__117__compressed_pairImNS_9allocatorImEEEC1B8ue170006IiNS_18__default_init_tagEEEOT_OT0_, symObjAddr: 0x1AC0, symBinAddr: 0x100002EE0, symSize: 0x30 }
  - { offsetInCU: 0x11CBA, offset: 0x11CBA, size: 0x8, addend: 0x0, symName: __ZNSt3__16vectorIbNS_9allocatorIbEEE11__vallocateB8ue170006Em, symObjAddr: 0x1AF0, symBinAddr: 0x100002F10, symSize: 0xA0 }
  - { offsetInCU: 0x11CFE, offset: 0x11CFE, size: 0x8, addend: 0x0, symName: __ZNSt3__16vectorIbNS_9allocatorIbEEE18__construct_at_endB8ue170006Emb, symObjAddr: 0x1B90, symBinAddr: 0x100002FB0, symSize: 0xE0 }
  - { offsetInCU: 0x11D53, offset: 0x11D53, size: 0x8, addend: 0x0, symName: __ZNSt3__117__compressed_pairImNS_9allocatorImEEEC2B8ue170006IiNS_18__default_init_tagEEEOT_OT0_, symObjAddr: 0x1C70, symBinAddr: 0x100003090, symSize: 0x40 }
  - { offsetInCU: 0x11DAB, offset: 0x11DAB, size: 0x8, addend: 0x0, symName: __ZNSt3__122__compressed_pair_elemImLi0ELb0EEC2B8ue170006IivEEOT_, symObjAddr: 0x1CB0, symBinAddr: 0x1000030D0, symSize: 0x20 }
  - { offsetInCU: 0x11DED, offset: 0x11DED, size: 0x8, addend: 0x0, symName: __ZNSt3__122__compressed_pair_elemINS_9allocatorImEELi1ELb1EEC2B8ue170006ENS_18__default_init_tagE, symObjAddr: 0x1CD0, symBinAddr: 0x1000030F0, symSize: 0x20 }
  - { offsetInCU: 0x11E22, offset: 0x11E22, size: 0x8, addend: 0x0, symName: __ZNSt3__19allocatorImEC2B8ue170006Ev, symObjAddr: 0x1CF0, symBinAddr: 0x100003110, symSize: 0x20 }
  - { offsetInCU: 0x11E4C, offset: 0x11E4C, size: 0x8, addend: 0x0, symName: __ZNSt3__116__non_trivial_ifILb1ENS_9allocatorImEEEC2B8ue170006Ev, symObjAddr: 0x1D10, symBinAddr: 0x100003130, symSize: 0x10 }
  - { offsetInCU: 0x11E76, offset: 0x11E76, size: 0x8, addend: 0x0, symName: __ZNKSt3__16vectorIbNS_9allocatorIbEEE8max_sizeEv, symObjAddr: 0x1D20, symBinAddr: 0x100003140, symSize: 0x70 }
  - { offsetInCU: 0x11EBC, offset: 0x11EBC, size: 0x8, addend: 0x0, symName: __ZNKSt3__16vectorIbNS_9allocatorIbEEE20__throw_length_errorB8ue170006Ev, symObjAddr: 0x1D90, symBinAddr: 0x1000031B0, symSize: 0x20 }
  - { offsetInCU: 0x11EE2, offset: 0x11EE2, size: 0x8, addend: 0x0, symName: __ZNSt3__16vectorIbNS_9allocatorIbEEE7__allocB8ue170006Ev, symObjAddr: 0x1DF0, symBinAddr: 0x100003210, symSize: 0x20 }
  - { offsetInCU: 0x11F08, offset: 0x11F08, size: 0x8, addend: 0x0, symName: __ZNSt3__16vectorIbNS_9allocatorIbEEE26__external_cap_to_internalB8ue170006Em, symObjAddr: 0x1E10, symBinAddr: 0x100003230, symSize: 0x20 }
  - { offsetInCU: 0x11F2C, offset: 0x11F2C, size: 0x8, addend: 0x0, symName: __ZNSt3__16vectorIbNS_9allocatorIbEEE5__capB8ue170006Ev, symObjAddr: 0x1E30, symBinAddr: 0x100003250, symSize: 0x20 }
  - { offsetInCU: 0x11F5C, offset: 0x11F5C, size: 0x8, addend: 0x0, symName: __ZNSt3__116allocator_traitsINS_9allocatorImEEE8max_sizeB8ue170006IS2_vEEmRKS2_, symObjAddr: 0x1E50, symBinAddr: 0x100003270, symSize: 0x20 }
  - { offsetInCU: 0x11F8A, offset: 0x11F8A, size: 0x8, addend: 0x0, symName: __ZNKSt3__16vectorIbNS_9allocatorIbEEE7__allocB8ue170006Ev, symObjAddr: 0x1E70, symBinAddr: 0x100003290, symSize: 0x20 }
  - { offsetInCU: 0x11FB0, offset: 0x11FB0, size: 0x8, addend: 0x0, symName: __ZNSt3__114numeric_limitsImE3maxB8ue170006Ev, symObjAddr: 0x1E90, symBinAddr: 0x1000032B0, symSize: 0x10 }
  - { offsetInCU: 0x11FC4, offset: 0x11FC4, size: 0x8, addend: 0x0, symName: __ZNSt3__16vectorIbNS_9allocatorIbEEE26__internal_cap_to_externalB8ue170006Em, symObjAddr: 0x1EA0, symBinAddr: 0x1000032C0, symSize: 0x20 }
  - { offsetInCU: 0x11FE8, offset: 0x11FE8, size: 0x8, addend: 0x0, symName: __ZNKSt3__19allocatorImE8max_sizeB8ue170006Ev, symObjAddr: 0x1EC0, symBinAddr: 0x1000032E0, symSize: 0x20 }
  - { offsetInCU: 0x1200E, offset: 0x1200E, size: 0x8, addend: 0x0, symName: __ZNKSt3__117__compressed_pairImNS_9allocatorImEEE6secondB8ue170006Ev, symObjAddr: 0x1EE0, symBinAddr: 0x100003300, symSize: 0x20 }
  - { offsetInCU: 0x12034, offset: 0x12034, size: 0x8, addend: 0x0, symName: __ZNKSt3__122__compressed_pair_elemINS_9allocatorImEELi1ELb1EE5__getB8ue170006Ev, symObjAddr: 0x1F00, symBinAddr: 0x100003320, symSize: 0x10 }
  - { offsetInCU: 0x1205A, offset: 0x1205A, size: 0x8, addend: 0x0, symName: __ZNSt3__123__libcpp_numeric_limitsImLb1EE3maxB8ue170006Ev, symObjAddr: 0x1F10, symBinAddr: 0x100003330, symSize: 0x10 }
  - { offsetInCU: 0x1206E, offset: 0x1206E, size: 0x8, addend: 0x0, symName: __ZNSt12length_errorC1B8ue170006EPKc, symObjAddr: 0x1F90, symBinAddr: 0x1000033B0, symSize: 0x30 }
  - { offsetInCU: 0x120A6, offset: 0x120A6, size: 0x8, addend: 0x0, symName: __ZNSt12length_errorC2B8ue170006EPKc, symObjAddr: 0x1FC0, symBinAddr: 0x1000033E0, symSize: 0x40 }
  - { offsetInCU: 0x120DE, offset: 0x120DE, size: 0x8, addend: 0x0, symName: __ZNSt3__19allocatorImE8allocateB8ue170006Em, symObjAddr: 0x2000, symBinAddr: 0x100003420, symSize: 0x50 }
  - { offsetInCU: 0x12112, offset: 0x12112, size: 0x8, addend: 0x0, symName: __ZNSt3__117__compressed_pairImNS_9allocatorImEEE6secondB8ue170006Ev, symObjAddr: 0x2160, symBinAddr: 0x100003580, symSize: 0x20 }
  - { offsetInCU: 0x12138, offset: 0x12138, size: 0x8, addend: 0x0, symName: __ZNSt3__122__compressed_pair_elemINS_9allocatorImEELi1ELb1EE5__getB8ue170006Ev, symObjAddr: 0x2180, symBinAddr: 0x1000035A0, symSize: 0x10 }
  - { offsetInCU: 0x1215E, offset: 0x1215E, size: 0x8, addend: 0x0, symName: __ZNSt3__117__compressed_pairImNS_9allocatorImEEE5firstB8ue170006Ev, symObjAddr: 0x2190, symBinAddr: 0x1000035B0, symSize: 0x20 }
  - { offsetInCU: 0x12184, offset: 0x12184, size: 0x8, addend: 0x0, symName: __ZNSt3__122__compressed_pair_elemImLi0ELb0EE5__getB8ue170006Ev, symObjAddr: 0x21B0, symBinAddr: 0x1000035D0, symSize: 0x10 }
  - { offsetInCU: 0x121AA, offset: 0x121AA, size: 0x8, addend: 0x0, symName: __ZNSt3__16vectorIbNS_9allocatorIbEEE11__make_iterB8ue170006Em, symObjAddr: 0x2240, symBinAddr: 0x100003660, symSize: 0x50 }
  - { offsetInCU: 0x121DF, offset: 0x121DF, size: 0x8, addend: 0x0, symName: __ZNSt3__114__bit_iteratorINS_6vectorIbNS_9allocatorIbEEEELb0ELm0EEC1B8ue170006ERKS5_, symObjAddr: 0x23D0, symBinAddr: 0x1000037F0, symSize: 0x30 }
  - { offsetInCU: 0x12222, offset: 0x12222, size: 0x8, addend: 0x0, symName: __ZNKSt3__16__lessIvvEclB8ue170006ImmEEbRKT_RKT0_, symObjAddr: 0x2610, symBinAddr: 0x100003A30, symSize: 0x30 }
  - { offsetInCU: 0x12276, offset: 0x12276, size: 0x8, addend: 0x0, symName: __ZNSt3__114__bit_iteratorINS_6vectorIbNS_9allocatorIbEEEELb0ELm0EEC2B8ue170006ERKS5_, symObjAddr: 0x26A0, symBinAddr: 0x100003AC0, symSize: 0x30 }
  - { offsetInCU: 0x122AF, offset: 0x122AF, size: 0x8, addend: 0x0, symName: __ZNSt3__114__bit_iteratorINS_6vectorIbNS_9allocatorIbEEEELb0ELm0EEC1B8ue170006EPmj, symObjAddr: 0x2760, symBinAddr: 0x100003B80, symSize: 0x30 }
  - { offsetInCU: 0x122F7, offset: 0x122F7, size: 0x8, addend: 0x0, symName: __ZNSt3__114__bit_iteratorINS_6vectorIbNS_9allocatorIbEEEELb0ELm0EEC2B8ue170006EPmj, symObjAddr: 0x2790, symBinAddr: 0x100003BB0, symSize: 0x30 }
  - { offsetInCU: 0x1233F, offset: 0x1233F, size: 0x8, addend: 0x0, symName: __ZNSt3__16vectorIbNS_9allocatorIbEEEixB8ue170006Em, symObjAddr: 0x27C0, symBinAddr: 0x100003BE0, symSize: 0x40 }
  - { offsetInCU: 0x12374, offset: 0x12374, size: 0x8, addend: 0x0, symName: __ZNSt3__115__bit_referenceINS_6vectorIbNS_9allocatorIbEEEELb1EEaSB8ue170006Eb, symObjAddr: 0x2800, symBinAddr: 0x100003C20, symSize: 0x60 }
  - { offsetInCU: 0x123A8, offset: 0x123A8, size: 0x8, addend: 0x0, symName: __ZNSt3__16vectorIbNS_9allocatorIbEEE10__make_refB8ue170006Em, symObjAddr: 0x2860, symBinAddr: 0x100003C80, symSize: 0x50 }
  - { offsetInCU: 0x123DD, offset: 0x123DD, size: 0x8, addend: 0x0, symName: __ZNSt3__115__bit_referenceINS_6vectorIbNS_9allocatorIbEEEELb1EEC1B8ue170006EPmm, symObjAddr: 0x28B0, symBinAddr: 0x100003CD0, symSize: 0x30 }
  - { offsetInCU: 0x12423, offset: 0x12423, size: 0x8, addend: 0x0, symName: __ZNSt3__115__bit_referenceINS_6vectorIbNS_9allocatorIbEEEELb1EEC2B8ue170006EPmm, symObjAddr: 0x28E0, symBinAddr: 0x100003D00, symSize: 0x30 }
  - { offsetInCU: 0x12469, offset: 0x12469, size: 0x8, addend: 0x0, symName: __ZNSt3__18ios_base4setfB8ue170006Ej, symObjAddr: 0x2910, symBinAddr: 0x100003D30, symSize: 0x30 }
  - { offsetInCU: 0x124AF, offset: 0x124AF, size: 0x8, addend: 0x0, symName: __ZNKSt3__115__bit_referenceINS_6vectorIbNS_9allocatorIbEEEELb1EEcvbB8ue170006Ev, symObjAddr: 0x2940, symBinAddr: 0x100003D60, symSize: 0x30 }
  - { offsetInCU: 0x124D5, offset: 0x124D5, size: 0x8, addend: 0x0, symName: __ZNSt3__15tupleIJiiiEEC1B8ue170006IJiiiELi0EEEDpOT_, symObjAddr: 0x2970, symBinAddr: 0x100003D90, symSize: 0x40 }
  - { offsetInCU: 0x12547, offset: 0x12547, size: 0x8, addend: 0x0, symName: __ZNSt3__15tupleIJiiiEEC2B8ue170006IJiiiELi0EEEDpOT_, symObjAddr: 0x29B0, symBinAddr: 0x100003DD0, symSize: 0x40 }
  - { offsetInCU: 0x125B9, offset: 0x125B9, size: 0x8, addend: 0x0, symName: __ZNSt3__112__tuple_implINS_15__tuple_indicesIJLm0ELm1ELm2EEEEJiiiEEC1B8ue170006IJLm0ELm1ELm2EEJiiiEJEJEJiiiEEENS1_IJXspT_EEEENS_13__tuple_typesIJDpT0_EEENS1_IJXspT1_EEEENS6_IJDpT2_EEEDpOT3_, symObjAddr: 0x29F0, symBinAddr: 0x100003E10, symSize: 0x40 }
  - { offsetInCU: 0x12688, offset: 0x12688, size: 0x8, addend: 0x0, symName: __ZNSt3__112__tuple_implINS_15__tuple_indicesIJLm0ELm1ELm2EEEEJiiiEEC2B8ue170006IJLm0ELm1ELm2EEJiiiEJEJEJiiiEEENS1_IJXspT_EEEENS_13__tuple_typesIJDpT0_EEENS1_IJXspT1_EEEENS6_IJDpT2_EEEDpOT3_, symObjAddr: 0x2A30, symBinAddr: 0x100003E50, symSize: 0x60 }
  - { offsetInCU: 0x12757, offset: 0x12757, size: 0x8, addend: 0x0, symName: __ZNSt3__112__tuple_leafILm0EiLb0EEC2B8ue170006IivEEOT_, symObjAddr: 0x2A90, symBinAddr: 0x100003EB0, symSize: 0x20 }
  - { offsetInCU: 0x1279A, offset: 0x1279A, size: 0x8, addend: 0x0, symName: __ZNSt3__112__tuple_leafILm1EiLb0EEC2B8ue170006IivEEOT_, symObjAddr: 0x2AB0, symBinAddr: 0x100003ED0, symSize: 0x20 }
  - { offsetInCU: 0x127DD, offset: 0x127DD, size: 0x8, addend: 0x0, symName: __ZNSt3__112__tuple_leafILm2EiLb0EEC2B8ue170006IivEEOT_, symObjAddr: 0x2AD0, symBinAddr: 0x100003EF0, symSize: 0x20 }
  - { offsetInCU: 0x12820, offset: 0x12820, size: 0x8, addend: 0x0, symName: __ZNKSt3__111__wrap_iterIPNS_5tupleIJiiiEEEE4baseB8ue170006Ev, symObjAddr: 0x2B30, symBinAddr: 0x100003F50, symSize: 0x20 }
  - { offsetInCU: 0x12846, offset: 0x12846, size: 0x8, addend: 0x0, symName: __ZNSt3__112__tuple_leafILm0EiLb0EE3getB8ue170006Ev, symObjAddr: 0x2B50, symBinAddr: 0x100003F70, symSize: 0x10 }
  - { offsetInCU: 0x1286C, offset: 0x1286C, size: 0x8, addend: 0x0, symName: __ZNSt3__112__tuple_leafILm1EiLb0EE3getB8ue170006Ev, symObjAddr: 0x2B60, symBinAddr: 0x100003F80, symSize: 0x10 }
  - { offsetInCU: 0x12892, offset: 0x12892, size: 0x8, addend: 0x0, symName: __ZNSt3__112__tuple_leafILm2EiLb0EE3getB8ue170006Ev, symObjAddr: 0x2B70, symBinAddr: 0x100003F90, symSize: 0x10 }
  - { offsetInCU: 0x128B8, offset: 0x128B8, size: 0x8, addend: 0x0, symName: __ZN15AdjacencyMatrixD2Ev, symObjAddr: 0x2B80, symBinAddr: 0x100003FA0, symSize: 0x20 }
  - { offsetInCU: 0x128E4, offset: 0x128E4, size: 0x8, addend: 0x0, symName: __ZNSt3__16vectorIbNS_9allocatorIbEEED1B8ue170006Ev, symObjAddr: 0x2BA0, symBinAddr: 0x100003FC0, symSize: 0x20 }
  - { offsetInCU: 0x1290E, offset: 0x1290E, size: 0x8, addend: 0x0, symName: __ZNSt3__16vectorIbNS_9allocatorIbEEED2B8ue170006Ev, symObjAddr: 0x2BC0, symBinAddr: 0x100003FE0, symSize: 0x40 }
  - { offsetInCU: 0x12938, offset: 0x12938, size: 0x8, addend: 0x0, symName: __ZNSt3__16vectorIbNS_9allocatorIbEEE16__destroy_vectorC1B8ue170006ERS3_, symObjAddr: 0x2C00, symBinAddr: 0x100004020, symSize: 0x30 }
  - { offsetInCU: 0x12971, offset: 0x12971, size: 0x8, addend: 0x0, symName: __ZNSt3__16vectorIbNS_9allocatorIbEEE16__destroy_vectorclB8ue170006Ev, symObjAddr: 0x2C40, symBinAddr: 0x100004060, symSize: 0x60 }
  - { offsetInCU: 0x12997, offset: 0x12997, size: 0x8, addend: 0x0, symName: __ZNSt3__16vectorIbNS_9allocatorIbEEE16__destroy_vectorC2B8ue170006ERS3_, symObjAddr: 0x2CA0, symBinAddr: 0x1000040C0, symSize: 0x20 }
  - { offsetInCU: 0x129D0, offset: 0x129D0, size: 0x8, addend: 0x0, symName: __ZNSt3__116allocator_traitsINS_9allocatorImEEE10deallocateB8ue170006ERS2_Pmm, symObjAddr: 0x2CC0, symBinAddr: 0x1000040E0, symSize: 0x30 }
  - { offsetInCU: 0x12A12, offset: 0x12A12, size: 0x8, addend: 0x0, symName: __ZNSt3__19allocatorImE10deallocateB8ue170006EPmm, symObjAddr: 0x2CF0, symBinAddr: 0x100004110, symSize: 0x40 }
  - { offsetInCU: 0x12A54, offset: 0x12A54, size: 0x8, addend: 0x0, symName: __ZNSt3__16vectorIiNS_9allocatorIiEEEC2EmRKi, symObjAddr: 0x2E30, symBinAddr: 0x100004250, symSize: 0xE0 }
  - { offsetInCU: 0x12AB8, offset: 0x12AB8, size: 0x8, addend: 0x0, symName: __ZNSt3__117__compressed_pairIPiNS_9allocatorIiEEEC1B8ue170006IDnNS_18__default_init_tagEEEOT_OT0_, symObjAddr: 0x2F10, symBinAddr: 0x100004330, symSize: 0x30 }
  - { offsetInCU: 0x12B10, offset: 0x12B10, size: 0x8, addend: 0x0, symName: __ZNSt3__16vectorIiNS_9allocatorIiEEE16__destroy_vectorC1B8ue170006ERS3_, symObjAddr: 0x2F80, symBinAddr: 0x1000043A0, symSize: 0x30 }
  - { offsetInCU: 0x12B49, offset: 0x12B49, size: 0x8, addend: 0x0, symName: __ZNSt3__16vectorIiNS_9allocatorIiEEE11__vallocateB8ue170006Em, symObjAddr: 0x2FB0, symBinAddr: 0x1000043D0, symSize: 0xA0 }
  - { offsetInCU: 0x12B8D, offset: 0x12B8D, size: 0x8, addend: 0x0, symName: __ZNSt3__16vectorIiNS_9allocatorIiEEE18__construct_at_endEmRKi, symObjAddr: 0x3050, symBinAddr: 0x100004470, symSize: 0xC0 }
  - { offsetInCU: 0x12C0E, offset: 0x12C0E, size: 0x8, addend: 0x0, symName: __ZNSt3__128__exception_guard_exceptionsINS_6vectorIiNS_9allocatorIiEEE16__destroy_vectorEE10__completeB8ue170006Ev, symObjAddr: 0x3110, symBinAddr: 0x100004530, symSize: 0x20 }
  - { offsetInCU: 0x12C34, offset: 0x12C34, size: 0x8, addend: 0x0, symName: __ZNSt3__128__exception_guard_exceptionsINS_6vectorIiNS_9allocatorIiEEE16__destroy_vectorEED1B8ue170006Ev, symObjAddr: 0x3130, symBinAddr: 0x100004550, symSize: 0x20 }
  - { offsetInCU: 0x12C5E, offset: 0x12C5E, size: 0x8, addend: 0x0, symName: __ZNSt3__117__compressed_pairIPiNS_9allocatorIiEEEC2B8ue170006IDnNS_18__default_init_tagEEEOT_OT0_, symObjAddr: 0x3150, symBinAddr: 0x100004570, symSize: 0x40 }
  - { offsetInCU: 0x12CB6, offset: 0x12CB6, size: 0x8, addend: 0x0, symName: __ZNSt3__122__compressed_pair_elemIPiLi0ELb0EEC2B8ue170006IDnvEEOT_, symObjAddr: 0x3190, symBinAddr: 0x1000045B0, symSize: 0x20 }
  - { offsetInCU: 0x12CF8, offset: 0x12CF8, size: 0x8, addend: 0x0, symName: __ZNSt3__122__compressed_pair_elemINS_9allocatorIiEELi1ELb1EEC2B8ue170006ENS_18__default_init_tagE, symObjAddr: 0x31B0, symBinAddr: 0x1000045D0, symSize: 0x20 }
  - { offsetInCU: 0x12D2D, offset: 0x12D2D, size: 0x8, addend: 0x0, symName: __ZNSt3__19allocatorIiEC2B8ue170006Ev, symObjAddr: 0x31D0, symBinAddr: 0x1000045F0, symSize: 0x20 }
  - { offsetInCU: 0x12D57, offset: 0x12D57, size: 0x8, addend: 0x0, symName: __ZNSt3__116__non_trivial_ifILb1ENS_9allocatorIiEEEC2B8ue170006Ev, symObjAddr: 0x31F0, symBinAddr: 0x100004610, symSize: 0x10 }
  - { offsetInCU: 0x12D81, offset: 0x12D81, size: 0x8, addend: 0x0, symName: __ZNSt3__128__exception_guard_exceptionsINS_6vectorIiNS_9allocatorIiEEE16__destroy_vectorEEC1B8ue170006ES5_, symObjAddr: 0x3200, symBinAddr: 0x100004620, symSize: 0x30 }
  - { offsetInCU: 0x12DB9, offset: 0x12DB9, size: 0x8, addend: 0x0, symName: __ZNSt3__128__exception_guard_exceptionsINS_6vectorIiNS_9allocatorIiEEE16__destroy_vectorEEC2B8ue170006ES5_, symObjAddr: 0x3230, symBinAddr: 0x100004650, symSize: 0x20 }
  - { offsetInCU: 0x12DF1, offset: 0x12DF1, size: 0x8, addend: 0x0, symName: __ZNSt3__16vectorIiNS_9allocatorIiEEE16__destroy_vectorC2B8ue170006ERS3_, symObjAddr: 0x3250, symBinAddr: 0x100004670, symSize: 0x20 }
  - { offsetInCU: 0x12E2A, offset: 0x12E2A, size: 0x8, addend: 0x0, symName: __ZNKSt3__16vectorIiNS_9allocatorIiEEE8max_sizeEv, symObjAddr: 0x3270, symBinAddr: 0x100004690, symSize: 0x60 }
  - { offsetInCU: 0x12E52, offset: 0x12E52, size: 0x8, addend: 0x0, symName: __ZNKSt3__16vectorIiNS_9allocatorIiEEE20__throw_length_errorB8ue170006Ev, symObjAddr: 0x32D0, symBinAddr: 0x1000046F0, symSize: 0x20 }
  - { offsetInCU: 0x12E78, offset: 0x12E78, size: 0x8, addend: 0x0, symName: __ZNSt3__16vectorIiNS_9allocatorIiEEE7__allocB8ue170006Ev, symObjAddr: 0x3330, symBinAddr: 0x100004750, symSize: 0x20 }
  - { offsetInCU: 0x12E9E, offset: 0x12E9E, size: 0x8, addend: 0x0, symName: __ZNSt3__16vectorIiNS_9allocatorIiEEE9__end_capB8ue170006Ev, symObjAddr: 0x3350, symBinAddr: 0x100004770, symSize: 0x20 }
  - { offsetInCU: 0x12EC4, offset: 0x12EC4, size: 0x8, addend: 0x0, symName: __ZNKSt3__16vectorIiNS_9allocatorIiEEE14__annotate_newB8ue170006Em, symObjAddr: 0x3370, symBinAddr: 0x100004790, symSize: 0xB0 }
  - { offsetInCU: 0x12F03, offset: 0x12F03, size: 0x8, addend: 0x0, symName: __ZNSt3__116allocator_traitsINS_9allocatorIiEEE8max_sizeB8ue170006IS2_vEEmRKS2_, symObjAddr: 0x3420, symBinAddr: 0x100004840, symSize: 0x20 }
  - { offsetInCU: 0x12F31, offset: 0x12F31, size: 0x8, addend: 0x0, symName: __ZNKSt3__16vectorIiNS_9allocatorIiEEE7__allocB8ue170006Ev, symObjAddr: 0x3440, symBinAddr: 0x100004860, symSize: 0x20 }
  - { offsetInCU: 0x12F57, offset: 0x12F57, size: 0x8, addend: 0x0, symName: __ZNSt3__114numeric_limitsIlE3maxB8ue170006Ev, symObjAddr: 0x3460, symBinAddr: 0x100004880, symSize: 0x10 }
  - { offsetInCU: 0x12F6B, offset: 0x12F6B, size: 0x8, addend: 0x0, symName: __ZNKSt3__19allocatorIiE8max_sizeB8ue170006Ev, symObjAddr: 0x3470, symBinAddr: 0x100004890, symSize: 0x20 }
  - { offsetInCU: 0x12F91, offset: 0x12F91, size: 0x8, addend: 0x0, symName: __ZNKSt3__117__compressed_pairIPiNS_9allocatorIiEEE6secondB8ue170006Ev, symObjAddr: 0x3490, symBinAddr: 0x1000048B0, symSize: 0x20 }
  - { offsetInCU: 0x12FB7, offset: 0x12FB7, size: 0x8, addend: 0x0, symName: __ZNKSt3__122__compressed_pair_elemINS_9allocatorIiEELi1ELb1EE5__getB8ue170006Ev, symObjAddr: 0x34B0, symBinAddr: 0x1000048D0, symSize: 0x10 }
  - { offsetInCU: 0x12FDD, offset: 0x12FDD, size: 0x8, addend: 0x0, symName: __ZNSt3__123__libcpp_numeric_limitsIlLb1EE3maxB8ue170006Ev, symObjAddr: 0x34C0, symBinAddr: 0x1000048E0, symSize: 0x10 }
  - { offsetInCU: 0x12FF1, offset: 0x12FF1, size: 0x8, addend: 0x0, symName: __ZNSt3__19allocatorIiE8allocateB8ue170006Em, symObjAddr: 0x34D0, symBinAddr: 0x1000048F0, symSize: 0x50 }
  - { offsetInCU: 0x13025, offset: 0x13025, size: 0x8, addend: 0x0, symName: __ZNSt3__117__compressed_pairIPiNS_9allocatorIiEEE6secondB8ue170006Ev, symObjAddr: 0x3520, symBinAddr: 0x100004940, symSize: 0x20 }
  - { offsetInCU: 0x1304B, offset: 0x1304B, size: 0x8, addend: 0x0, symName: __ZNSt3__122__compressed_pair_elemINS_9allocatorIiEELi1ELb1EE5__getB8ue170006Ev, symObjAddr: 0x3540, symBinAddr: 0x100004960, symSize: 0x10 }
  - { offsetInCU: 0x13071, offset: 0x13071, size: 0x8, addend: 0x0, symName: __ZNSt3__117__compressed_pairIPiNS_9allocatorIiEEE5firstB8ue170006Ev, symObjAddr: 0x3550, symBinAddr: 0x100004970, symSize: 0x20 }
  - { offsetInCU: 0x13097, offset: 0x13097, size: 0x8, addend: 0x0, symName: __ZNSt3__122__compressed_pair_elemIPiLi0ELb0EE5__getB8ue170006Ev, symObjAddr: 0x3570, symBinAddr: 0x100004990, symSize: 0x10 }
  - { offsetInCU: 0x130BD, offset: 0x130BD, size: 0x8, addend: 0x0, symName: __ZNKSt3__16vectorIiNS_9allocatorIiEEE31__annotate_contiguous_containerB8ue170006EPKvS5_S5_S5_, symObjAddr: 0x3580, symBinAddr: 0x1000049A0, symSize: 0x20 }
  - { offsetInCU: 0x1310F, offset: 0x1310F, size: 0x8, addend: 0x0, symName: __ZNKSt3__16vectorIiNS_9allocatorIiEEE4dataB8ue170006Ev, symObjAddr: 0x35A0, symBinAddr: 0x1000049C0, symSize: 0x20 }
  - { offsetInCU: 0x13135, offset: 0x13135, size: 0x8, addend: 0x0, symName: __ZNKSt3__16vectorIiNS_9allocatorIiEEE8capacityB8ue170006Ev, symObjAddr: 0x35C0, symBinAddr: 0x1000049E0, symSize: 0x30 }
  - { offsetInCU: 0x1315B, offset: 0x1315B, size: 0x8, addend: 0x0, symName: __ZNKSt3__16vectorIiNS_9allocatorIiEEE9__end_capB8ue170006Ev, symObjAddr: 0x3600, symBinAddr: 0x100004A20, symSize: 0x20 }
  - { offsetInCU: 0x13181, offset: 0x13181, size: 0x8, addend: 0x0, symName: __ZNKSt3__117__compressed_pairIPiNS_9allocatorIiEEE5firstB8ue170006Ev, symObjAddr: 0x3620, symBinAddr: 0x100004A40, symSize: 0x20 }
  - { offsetInCU: 0x131A7, offset: 0x131A7, size: 0x8, addend: 0x0, symName: __ZNKSt3__122__compressed_pair_elemIPiLi0ELb0EE5__getB8ue170006Ev, symObjAddr: 0x3640, symBinAddr: 0x100004A60, symSize: 0x10 }
  - { offsetInCU: 0x131E6, offset: 0x131E6, size: 0x8, addend: 0x0, symName: __ZNSt3__16vectorIiNS_9allocatorIiEEE21_ConstructTransactionC1B8ue170006ERS3_m, symObjAddr: 0x3650, symBinAddr: 0x100004A70, symSize: 0x30 }
  - { offsetInCU: 0x1322E, offset: 0x1322E, size: 0x8, addend: 0x0, symName: __ZNSt3__116allocator_traitsINS_9allocatorIiEEE9constructB8ue170006IiJRKiEvEEvRS2_PT_DpOT0_, symObjAddr: 0x3680, symBinAddr: 0x100004AA0, symSize: 0x30 }
  - { offsetInCU: 0x13285, offset: 0x13285, size: 0x8, addend: 0x0, symName: __ZNSt3__16vectorIiNS_9allocatorIiEEE21_ConstructTransactionD1B8ue170006Ev, symObjAddr: 0x36B0, symBinAddr: 0x100004AD0, symSize: 0x20 }
  - { offsetInCU: 0x132AF, offset: 0x132AF, size: 0x8, addend: 0x0, symName: __ZNSt3__16vectorIiNS_9allocatorIiEEE21_ConstructTransactionC2B8ue170006ERS3_m, symObjAddr: 0x36D0, symBinAddr: 0x100004AF0, symSize: 0x40 }
  - { offsetInCU: 0x132F7, offset: 0x132F7, size: 0x8, addend: 0x0, symName: __ZNSt3__19allocatorIiE9constructB8ue170006IiJRKiEEEvPT_DpOT0_, symObjAddr: 0x3710, symBinAddr: 0x100004B30, symSize: 0x20 }
  - { offsetInCU: 0x1334D, offset: 0x1334D, size: 0x8, addend: 0x0, symName: __ZNSt3__16vectorIiNS_9allocatorIiEEE21_ConstructTransactionD2B8ue170006Ev, symObjAddr: 0x3730, symBinAddr: 0x100004B50, symSize: 0x20 }
  - { offsetInCU: 0x13377, offset: 0x13377, size: 0x8, addend: 0x0, symName: __ZNSt3__128__exception_guard_exceptionsINS_6vectorIiNS_9allocatorIiEEE16__destroy_vectorEED2B8ue170006Ev, symObjAddr: 0x3750, symBinAddr: 0x100004B70, symSize: 0x40 }
  - { offsetInCU: 0x133A1, offset: 0x133A1, size: 0x8, addend: 0x0, symName: __ZNSt3__16vectorIiNS_9allocatorIiEEE16__destroy_vectorclB8ue170006Ev, symObjAddr: 0x3790, symBinAddr: 0x100004BB0, symSize: 0x80 }
  - { offsetInCU: 0x133C7, offset: 0x133C7, size: 0x8, addend: 0x0, symName: __ZNSt3__16vectorIiNS_9allocatorIiEEE7__clearB8ue170006Ev, symObjAddr: 0x3810, symBinAddr: 0x100004C30, symSize: 0x20 }
  - { offsetInCU: 0x133ED, offset: 0x133ED, size: 0x8, addend: 0x0, symName: __ZNKSt3__16vectorIiNS_9allocatorIiEEE17__annotate_deleteB8ue170006Ev, symObjAddr: 0x3830, symBinAddr: 0x100004C50, symSize: 0xB0 }
  - { offsetInCU: 0x13413, offset: 0x13413, size: 0x8, addend: 0x0, symName: __ZNSt3__116allocator_traitsINS_9allocatorIiEEE10deallocateB8ue170006ERS2_Pim, symObjAddr: 0x38E0, symBinAddr: 0x100004D00, symSize: 0x30 }
  - { offsetInCU: 0x13455, offset: 0x13455, size: 0x8, addend: 0x0, symName: __ZNSt3__16vectorIiNS_9allocatorIiEEE22__base_destruct_at_endB8ue170006EPi, symObjAddr: 0x3910, symBinAddr: 0x100004D30, symSize: 0x80 }
  - { offsetInCU: 0x13499, offset: 0x13499, size: 0x8, addend: 0x0, symName: __ZNSt3__116allocator_traitsINS_9allocatorIiEEE7destroyB8ue170006IivEEvRS2_PT_, symObjAddr: 0x3990, symBinAddr: 0x100004DB0, symSize: 0x30 }
  - { offsetInCU: 0x134D6, offset: 0x134D6, size: 0x8, addend: 0x0, symName: __ZNSt3__19allocatorIiE7destroyB8ue170006EPi, symObjAddr: 0x39C0, symBinAddr: 0x100004DE0, symSize: 0x10 }
  - { offsetInCU: 0x1350A, offset: 0x1350A, size: 0x8, addend: 0x0, symName: __ZNKSt3__16vectorIiNS_9allocatorIiEEE4sizeB8ue170006Ev, symObjAddr: 0x39D0, symBinAddr: 0x100004DF0, symSize: 0x20 }
  - { offsetInCU: 0x13530, offset: 0x13530, size: 0x8, addend: 0x0, symName: __ZNSt3__19allocatorIiE10deallocateB8ue170006EPim, symObjAddr: 0x39F0, symBinAddr: 0x100004E10, symSize: 0x40 }
  - { offsetInCU: 0x13572, offset: 0x13572, size: 0x8, addend: 0x0, symName: __ZNSt3__16vectorIiNS_9allocatorIiEEED2B8ue170006Ev, symObjAddr: 0x3A30, symBinAddr: 0x100004E50, symSize: 0x40 }
  - { offsetInCU: 0x1359C, offset: 0x1359C, size: 0x8, addend: 0x0, symName: __ZNSt3__16vectorINS0_IiNS_9allocatorIiEEEENS1_IS3_EEEC2EmRKS3_, symObjAddr: 0x3A70, symBinAddr: 0x100004E90, symSize: 0xE0 }
  - { offsetInCU: 0x135FB, offset: 0x135FB, size: 0x8, addend: 0x0, symName: __ZNSt3__117__compressed_pairIPNS_6vectorIiNS_9allocatorIiEEEENS2_IS4_EEEC1B8ue170006IDnNS_18__default_init_tagEEEOT_OT0_, symObjAddr: 0x3B50, symBinAddr: 0x100004F70, symSize: 0x30 }
  - { offsetInCU: 0x13653, offset: 0x13653, size: 0x8, addend: 0x0, symName: __ZNSt3__16vectorINS0_IiNS_9allocatorIiEEEENS1_IS3_EEE16__destroy_vectorC1B8ue170006ERS5_, symObjAddr: 0x3BC0, symBinAddr: 0x100004FE0, symSize: 0x30 }
  - { offsetInCU: 0x1368C, offset: 0x1368C, size: 0x8, addend: 0x0, symName: __ZNSt3__16vectorINS0_IiNS_9allocatorIiEEEENS1_IS3_EEE11__vallocateB8ue170006Em, symObjAddr: 0x3BF0, symBinAddr: 0x100005010, symSize: 0xA0 }
  - { offsetInCU: 0x136D0, offset: 0x136D0, size: 0x8, addend: 0x0, symName: __ZNSt3__16vectorINS0_IiNS_9allocatorIiEEEENS1_IS3_EEE18__construct_at_endEmRKS3_, symObjAddr: 0x3C90, symBinAddr: 0x1000050B0, symSize: 0xC0 }
  - { offsetInCU: 0x13751, offset: 0x13751, size: 0x8, addend: 0x0, symName: __ZNSt3__128__exception_guard_exceptionsINS_6vectorINS1_IiNS_9allocatorIiEEEENS2_IS4_EEE16__destroy_vectorEE10__completeB8ue170006Ev, symObjAddr: 0x3D50, symBinAddr: 0x100005170, symSize: 0x20 }
  - { offsetInCU: 0x13777, offset: 0x13777, size: 0x8, addend: 0x0, symName: __ZNSt3__128__exception_guard_exceptionsINS_6vectorINS1_IiNS_9allocatorIiEEEENS2_IS4_EEE16__destroy_vectorEED1B8ue170006Ev, symObjAddr: 0x3D70, symBinAddr: 0x100005190, symSize: 0x20 }
  - { offsetInCU: 0x137A1, offset: 0x137A1, size: 0x8, addend: 0x0, symName: __ZNSt3__117__compressed_pairIPNS_6vectorIiNS_9allocatorIiEEEENS2_IS4_EEEC2B8ue170006IDnNS_18__default_init_tagEEEOT_OT0_, symObjAddr: 0x3D90, symBinAddr: 0x1000051B0, symSize: 0x40 }
  - { offsetInCU: 0x137F9, offset: 0x137F9, size: 0x8, addend: 0x0, symName: __ZNSt3__122__compressed_pair_elemIPNS_6vectorIiNS_9allocatorIiEEEELi0ELb0EEC2B8ue170006IDnvEEOT_, symObjAddr: 0x3DD0, symBinAddr: 0x1000051F0, symSize: 0x20 }
  - { offsetInCU: 0x1383B, offset: 0x1383B, size: 0x8, addend: 0x0, symName: __ZNSt3__122__compressed_pair_elemINS_9allocatorINS_6vectorIiNS1_IiEEEEEELi1ELb1EEC2B8ue170006ENS_18__default_init_tagE, symObjAddr: 0x3DF0, symBinAddr: 0x100005210, symSize: 0x20 }
  - { offsetInCU: 0x13870, offset: 0x13870, size: 0x8, addend: 0x0, symName: __ZNSt3__19allocatorINS_6vectorIiNS0_IiEEEEEC2B8ue170006Ev, symObjAddr: 0x3E10, symBinAddr: 0x100005230, symSize: 0x20 }
  - { offsetInCU: 0x1389A, offset: 0x1389A, size: 0x8, addend: 0x0, symName: __ZNSt3__116__non_trivial_ifILb1ENS_9allocatorINS_6vectorIiNS1_IiEEEEEEEC2B8ue170006Ev, symObjAddr: 0x3E30, symBinAddr: 0x100005250, symSize: 0x10 }
  - { offsetInCU: 0x138C4, offset: 0x138C4, size: 0x8, addend: 0x0, symName: __ZNSt3__128__exception_guard_exceptionsINS_6vectorINS1_IiNS_9allocatorIiEEEENS2_IS4_EEE16__destroy_vectorEEC1B8ue170006ES7_, symObjAddr: 0x3E40, symBinAddr: 0x100005260, symSize: 0x30 }
  - { offsetInCU: 0x138FC, offset: 0x138FC, size: 0x8, addend: 0x0, symName: __ZNSt3__128__exception_guard_exceptionsINS_6vectorINS1_IiNS_9allocatorIiEEEENS2_IS4_EEE16__destroy_vectorEEC2B8ue170006ES7_, symObjAddr: 0x3E70, symBinAddr: 0x100005290, symSize: 0x20 }
  - { offsetInCU: 0x13934, offset: 0x13934, size: 0x8, addend: 0x0, symName: __ZNSt3__16vectorINS0_IiNS_9allocatorIiEEEENS1_IS3_EEE16__destroy_vectorC2B8ue170006ERS5_, symObjAddr: 0x3E90, symBinAddr: 0x1000052B0, symSize: 0x20 }
  - { offsetInCU: 0x1396D, offset: 0x1396D, size: 0x8, addend: 0x0, symName: __ZNKSt3__16vectorINS0_IiNS_9allocatorIiEEEENS1_IS3_EEE8max_sizeEv, symObjAddr: 0x3EB0, symBinAddr: 0x1000052D0, symSize: 0x60 }
  - { offsetInCU: 0x13995, offset: 0x13995, size: 0x8, addend: 0x0, symName: __ZNKSt3__16vectorINS0_IiNS_9allocatorIiEEEENS1_IS3_EEE20__throw_length_errorB8ue170006Ev, symObjAddr: 0x3F10, symBinAddr: 0x100005330, symSize: 0x20 }
  - { offsetInCU: 0x139BB, offset: 0x139BB, size: 0x8, addend: 0x0, symName: __ZNSt3__16vectorINS0_IiNS_9allocatorIiEEEENS1_IS3_EEE7__allocB8ue170006Ev, symObjAddr: 0x3F70, symBinAddr: 0x100005390, symSize: 0x20 }
  - { offsetInCU: 0x139E1, offset: 0x139E1, size: 0x8, addend: 0x0, symName: __ZNSt3__16vectorINS0_IiNS_9allocatorIiEEEENS1_IS3_EEE9__end_capB8ue170006Ev, symObjAddr: 0x3F90, symBinAddr: 0x1000053B0, symSize: 0x20 }
  - { offsetInCU: 0x13A07, offset: 0x13A07, size: 0x8, addend: 0x0, symName: __ZNKSt3__16vectorINS0_IiNS_9allocatorIiEEEENS1_IS3_EEE14__annotate_newB8ue170006Em, symObjAddr: 0x3FB0, symBinAddr: 0x1000053D0, symSize: 0xA0 }
  - { offsetInCU: 0x13A46, offset: 0x13A46, size: 0x8, addend: 0x0, symName: __ZNSt3__116allocator_traitsINS_9allocatorINS_6vectorIiNS1_IiEEEEEEE8max_sizeB8ue170006IS5_vEEmRKS5_, symObjAddr: 0x4050, symBinAddr: 0x100005470, symSize: 0x20 }
  - { offsetInCU: 0x13A74, offset: 0x13A74, size: 0x8, addend: 0x0, symName: __ZNKSt3__16vectorINS0_IiNS_9allocatorIiEEEENS1_IS3_EEE7__allocB8ue170006Ev, symObjAddr: 0x4070, symBinAddr: 0x100005490, symSize: 0x20 }
  - { offsetInCU: 0x13A9A, offset: 0x13A9A, size: 0x8, addend: 0x0, symName: __ZNKSt3__19allocatorINS_6vectorIiNS0_IiEEEEE8max_sizeB8ue170006Ev, symObjAddr: 0x4090, symBinAddr: 0x1000054B0, symSize: 0x20 }
  - { offsetInCU: 0x13AC0, offset: 0x13AC0, size: 0x8, addend: 0x0, symName: __ZNKSt3__117__compressed_pairIPNS_6vectorIiNS_9allocatorIiEEEENS2_IS4_EEE6secondB8ue170006Ev, symObjAddr: 0x40B0, symBinAddr: 0x1000054D0, symSize: 0x20 }
  - { offsetInCU: 0x13AE6, offset: 0x13AE6, size: 0x8, addend: 0x0, symName: __ZNKSt3__122__compressed_pair_elemINS_9allocatorINS_6vectorIiNS1_IiEEEEEELi1ELb1EE5__getB8ue170006Ev, symObjAddr: 0x40D0, symBinAddr: 0x1000054F0, symSize: 0x10 }
  - { offsetInCU: 0x13B0C, offset: 0x13B0C, size: 0x8, addend: 0x0, symName: __ZNSt3__19allocatorINS_6vectorIiNS0_IiEEEEE8allocateB8ue170006Em, symObjAddr: 0x40E0, symBinAddr: 0x100005500, symSize: 0x50 }
  - { offsetInCU: 0x13B40, offset: 0x13B40, size: 0x8, addend: 0x0, symName: __ZNSt3__117__compressed_pairIPNS_6vectorIiNS_9allocatorIiEEEENS2_IS4_EEE6secondB8ue170006Ev, symObjAddr: 0x4130, symBinAddr: 0x100005550, symSize: 0x20 }
  - { offsetInCU: 0x13B66, offset: 0x13B66, size: 0x8, addend: 0x0, symName: __ZNSt3__122__compressed_pair_elemINS_9allocatorINS_6vectorIiNS1_IiEEEEEELi1ELb1EE5__getB8ue170006Ev, symObjAddr: 0x4150, symBinAddr: 0x100005570, symSize: 0x10 }
  - { offsetInCU: 0x13B8C, offset: 0x13B8C, size: 0x8, addend: 0x0, symName: __ZNSt3__117__compressed_pairIPNS_6vectorIiNS_9allocatorIiEEEENS2_IS4_EEE5firstB8ue170006Ev, symObjAddr: 0x4160, symBinAddr: 0x100005580, symSize: 0x20 }
  - { offsetInCU: 0x13BB2, offset: 0x13BB2, size: 0x8, addend: 0x0, symName: __ZNSt3__122__compressed_pair_elemIPNS_6vectorIiNS_9allocatorIiEEEELi0ELb0EE5__getB8ue170006Ev, symObjAddr: 0x4180, symBinAddr: 0x1000055A0, symSize: 0x10 }
  - { offsetInCU: 0x13BD8, offset: 0x13BD8, size: 0x8, addend: 0x0, symName: __ZNKSt3__16vectorINS0_IiNS_9allocatorIiEEEENS1_IS3_EEE31__annotate_contiguous_containerB8ue170006EPKvS7_S7_S7_, symObjAddr: 0x4190, symBinAddr: 0x1000055B0, symSize: 0x20 }
  - { offsetInCU: 0x13C2A, offset: 0x13C2A, size: 0x8, addend: 0x0, symName: __ZNKSt3__16vectorINS0_IiNS_9allocatorIiEEEENS1_IS3_EEE4dataB8ue170006Ev, symObjAddr: 0x41B0, symBinAddr: 0x1000055D0, symSize: 0x20 }
  - { offsetInCU: 0x13C50, offset: 0x13C50, size: 0x8, addend: 0x0, symName: __ZNKSt3__16vectorINS0_IiNS_9allocatorIiEEEENS1_IS3_EEE8capacityB8ue170006Ev, symObjAddr: 0x41D0, symBinAddr: 0x1000055F0, symSize: 0x40 }
  - { offsetInCU: 0x13C76, offset: 0x13C76, size: 0x8, addend: 0x0, symName: __ZNKSt3__16vectorINS0_IiNS_9allocatorIiEEEENS1_IS3_EEE9__end_capB8ue170006Ev, symObjAddr: 0x4220, symBinAddr: 0x100005640, symSize: 0x20 }
  - { offsetInCU: 0x13C9C, offset: 0x13C9C, size: 0x8, addend: 0x0, symName: __ZNKSt3__117__compressed_pairIPNS_6vectorIiNS_9allocatorIiEEEENS2_IS4_EEE5firstB8ue170006Ev, symObjAddr: 0x4240, symBinAddr: 0x100005660, symSize: 0x20 }
  - { offsetInCU: 0x13CC2, offset: 0x13CC2, size: 0x8, addend: 0x0, symName: __ZNKSt3__122__compressed_pair_elemIPNS_6vectorIiNS_9allocatorIiEEEELi0ELb0EE5__getB8ue170006Ev, symObjAddr: 0x4260, symBinAddr: 0x100005680, symSize: 0x10 }
  - { offsetInCU: 0x13D01, offset: 0x13D01, size: 0x8, addend: 0x0, symName: __ZNSt3__16vectorINS0_IiNS_9allocatorIiEEEENS1_IS3_EEE21_ConstructTransactionC1B8ue170006ERS5_m, symObjAddr: 0x4270, symBinAddr: 0x100005690, symSize: 0x30 }
  - { offsetInCU: 0x13D49, offset: 0x13D49, size: 0x8, addend: 0x0, symName: __ZNSt3__116allocator_traitsINS_9allocatorINS_6vectorIiNS1_IiEEEEEEE9constructB8ue170006IS4_JRKS4_EvEEvRS5_PT_DpOT0_, symObjAddr: 0x42A0, symBinAddr: 0x1000056C0, symSize: 0x30 }
  - { offsetInCU: 0x13DA0, offset: 0x13DA0, size: 0x8, addend: 0x0, symName: __ZNSt3__16vectorINS0_IiNS_9allocatorIiEEEENS1_IS3_EEE21_ConstructTransactionD1B8ue170006Ev, symObjAddr: 0x42D0, symBinAddr: 0x1000056F0, symSize: 0x20 }
  - { offsetInCU: 0x13DCA, offset: 0x13DCA, size: 0x8, addend: 0x0, symName: __ZNSt3__16vectorINS0_IiNS_9allocatorIiEEEENS1_IS3_EEE21_ConstructTransactionC2B8ue170006ERS5_m, symObjAddr: 0x42F0, symBinAddr: 0x100005710, symSize: 0x40 }
  - { offsetInCU: 0x13E12, offset: 0x13E12, size: 0x8, addend: 0x0, symName: __ZNSt3__19allocatorINS_6vectorIiNS0_IiEEEEE9constructB8ue170006IS3_JRKS3_EEEvPT_DpOT0_, symObjAddr: 0x4330, symBinAddr: 0x100005750, symSize: 0x30 }
  - { offsetInCU: 0x13E68, offset: 0x13E68, size: 0x8, addend: 0x0, symName: __ZNSt3__16vectorIiNS_9allocatorIiEEEC1ERKS3_, symObjAddr: 0x4360, symBinAddr: 0x100005780, symSize: 0x30 }
  - { offsetInCU: 0x13EA3, offset: 0x13EA3, size: 0x8, addend: 0x0, symName: __ZNSt3__16vectorIiNS_9allocatorIiEEEC2ERKS3_, symObjAddr: 0x4390, symBinAddr: 0x1000057B0, symSize: 0xA0 }
  - { offsetInCU: 0x13EDE, offset: 0x13EDE, size: 0x8, addend: 0x0, symName: __ZNSt3__116allocator_traitsINS_9allocatorIiEEE37select_on_container_copy_constructionB8ue170006IS2_vvEES2_RKS2_, symObjAddr: 0x4430, symBinAddr: 0x100005850, symSize: 0x10 }
  - { offsetInCU: 0x13F12, offset: 0x13F12, size: 0x8, addend: 0x0, symName: __ZNSt3__117__compressed_pairIPiNS_9allocatorIiEEEC1B8ue170006IDnS3_EEOT_OT0_, symObjAddr: 0x4440, symBinAddr: 0x100005860, symSize: 0x30 }
  - { offsetInCU: 0x13F6A, offset: 0x13F6A, size: 0x8, addend: 0x0, symName: __ZNSt3__16vectorIiNS_9allocatorIiEEE16__init_with_sizeB8ue170006IPiS5_EEvT_T0_m, symObjAddr: 0x4470, symBinAddr: 0x100005890, symSize: 0xB0 }
  - { offsetInCU: 0x13FDE, offset: 0x13FDE, size: 0x8, addend: 0x0, symName: __ZNSt3__117__compressed_pairIPiNS_9allocatorIiEEEC2B8ue170006IDnS3_EEOT_OT0_, symObjAddr: 0x4520, symBinAddr: 0x100005940, symSize: 0x40 }
  - { offsetInCU: 0x14036, offset: 0x14036, size: 0x8, addend: 0x0, symName: __ZNSt3__122__compressed_pair_elemINS_9allocatorIiEELi1ELb1EEC2B8ue170006IS2_vEEOT_, symObjAddr: 0x4560, symBinAddr: 0x100005980, symSize: 0x10 }
  - { offsetInCU: 0x14078, offset: 0x14078, size: 0x8, addend: 0x0, symName: __ZNSt3__16vectorIiNS_9allocatorIiEEE18__construct_at_endIPiS5_EEvT_T0_m, symObjAddr: 0x4570, symBinAddr: 0x100005990, symSize: 0x90 }
  - { offsetInCU: 0x1410C, offset: 0x1410C, size: 0x8, addend: 0x0, symName: __ZNSt3__14pairIPiS1_EC1B8ue170006IS1_S1_LPv0EEEOT_OT0_, symObjAddr: 0x4790, symBinAddr: 0x100005BB0, symSize: 0x30 }
  - { offsetInCU: 0x1416A, offset: 0x1416A, size: 0x8, addend: 0x0, symName: __ZNSt3__14pairIPiS1_EC2B8ue170006IS1_S1_LPv0EEEOT_OT0_, symObjAddr: 0x47C0, symBinAddr: 0x100005BE0, symSize: 0x30 }
  - { offsetInCU: 0x141D2, offset: 0x141D2, size: 0x8, addend: 0x0, symName: __ZNKSt3__114__copy_trivialclB8ue170006IiiLi0EEENS_4pairIPT_PT0_EES4_S4_S6_, symObjAddr: 0x4960, symBinAddr: 0x100005D80, symSize: 0x40 }
  - { offsetInCU: 0x1423A, offset: 0x1423A, size: 0x8, addend: 0x0, symName: __ZNSt3__14pairIPiS1_EC1B8ue170006IRS1_S1_LPv0EEEOT_OT0_, symObjAddr: 0x4AC0, symBinAddr: 0x100005EE0, symSize: 0x30 }
  - { offsetInCU: 0x14298, offset: 0x14298, size: 0x8, addend: 0x0, symName: __ZNSt3__14pairIPiS1_EC2B8ue170006IRS1_S1_LPv0EEEOT_OT0_, symObjAddr: 0x4AF0, symBinAddr: 0x100005F10, symSize: 0x30 }
  - { offsetInCU: 0x142F6, offset: 0x142F6, size: 0x8, addend: 0x0, symName: __ZNSt3__118__unwrap_iter_implIPiLb1EE8__unwrapB8ue170006ES1_, symObjAddr: 0x4B20, symBinAddr: 0x100005F40, symSize: 0x20 }
  - { offsetInCU: 0x14319, offset: 0x14319, size: 0x8, addend: 0x0, symName: __ZNSt3__118__unwrap_iter_implIPiLb1EE8__rewrapB8ue170006ES1_S1_, symObjAddr: 0x4B40, symBinAddr: 0x100005F60, symSize: 0x50 }
  - { offsetInCU: 0x1434A, offset: 0x1434A, size: 0x8, addend: 0x0, symName: __ZNSt3__16vectorINS0_IiNS_9allocatorIiEEEENS1_IS3_EEE21_ConstructTransactionD2B8ue170006Ev, symObjAddr: 0x4B90, symBinAddr: 0x100005FB0, symSize: 0x20 }
  - { offsetInCU: 0x14374, offset: 0x14374, size: 0x8, addend: 0x0, symName: __ZNSt3__128__exception_guard_exceptionsINS_6vectorINS1_IiNS_9allocatorIiEEEENS2_IS4_EEE16__destroy_vectorEED2B8ue170006Ev, symObjAddr: 0x4BB0, symBinAddr: 0x100005FD0, symSize: 0x40 }
  - { offsetInCU: 0x1439E, offset: 0x1439E, size: 0x8, addend: 0x0, symName: __ZNSt3__16vectorINS0_IiNS_9allocatorIiEEEENS1_IS3_EEE16__destroy_vectorclB8ue170006Ev, symObjAddr: 0x4BF0, symBinAddr: 0x100006010, symSize: 0x80 }
  - { offsetInCU: 0x143C4, offset: 0x143C4, size: 0x8, addend: 0x0, symName: __ZNSt3__16vectorINS0_IiNS_9allocatorIiEEEENS1_IS3_EEE7__clearB8ue170006Ev, symObjAddr: 0x4C70, symBinAddr: 0x100006090, symSize: 0x20 }
  - { offsetInCU: 0x143EA, offset: 0x143EA, size: 0x8, addend: 0x0, symName: __ZNKSt3__16vectorINS0_IiNS_9allocatorIiEEEENS1_IS3_EEE17__annotate_deleteB8ue170006Ev, symObjAddr: 0x4C90, symBinAddr: 0x1000060B0, symSize: 0xB0 }
  - { offsetInCU: 0x14410, offset: 0x14410, size: 0x8, addend: 0x0, symName: __ZNSt3__116allocator_traitsINS_9allocatorINS_6vectorIiNS1_IiEEEEEEE10deallocateB8ue170006ERS5_PS4_m, symObjAddr: 0x4D40, symBinAddr: 0x100006160, symSize: 0x30 }
  - { offsetInCU: 0x14452, offset: 0x14452, size: 0x8, addend: 0x0, symName: __ZNSt3__16vectorINS0_IiNS_9allocatorIiEEEENS1_IS3_EEE22__base_destruct_at_endB8ue170006EPS3_, symObjAddr: 0x4D70, symBinAddr: 0x100006190, symSize: 0x80 }
  - { offsetInCU: 0x14496, offset: 0x14496, size: 0x8, addend: 0x0, symName: __ZNSt3__116allocator_traitsINS_9allocatorINS_6vectorIiNS1_IiEEEEEEE7destroyB8ue170006IS4_vEEvRS5_PT_, symObjAddr: 0x4DF0, symBinAddr: 0x100006210, symSize: 0x30 }
  - { offsetInCU: 0x144D3, offset: 0x144D3, size: 0x8, addend: 0x0, symName: __ZNSt3__19allocatorINS_6vectorIiNS0_IiEEEEE7destroyB8ue170006EPS3_, symObjAddr: 0x4E20, symBinAddr: 0x100006240, symSize: 0x20 }
  - { offsetInCU: 0x14507, offset: 0x14507, size: 0x8, addend: 0x0, symName: __ZNKSt3__16vectorINS0_IiNS_9allocatorIiEEEENS1_IS3_EEE4sizeB8ue170006Ev, symObjAddr: 0x4E40, symBinAddr: 0x100006260, symSize: 0x30 }
  - { offsetInCU: 0x1452D, offset: 0x1452D, size: 0x8, addend: 0x0, symName: __ZNSt3__19allocatorINS_6vectorIiNS0_IiEEEEE10deallocateB8ue170006EPS3_m, symObjAddr: 0x4E70, symBinAddr: 0x100006290, symSize: 0x50 }
  - { offsetInCU: 0x1456F, offset: 0x1456F, size: 0x8, addend: 0x0, symName: __ZNSt3__16vectorINS0_IiNS_9allocatorIiEEEENS1_IS3_EEED2B8ue170006Ev, symObjAddr: 0x4EC0, symBinAddr: 0x1000062E0, symSize: 0x40 }
  - { offsetInCU: 0x14599, offset: 0x14599, size: 0x8, addend: 0x0, symName: __ZNSt3__16vectorINS_4pairIiiEENS_9allocatorIS2_EEEC2B8ue170006ESt16initializer_listIS2_E, symObjAddr: 0x4F00, symBinAddr: 0x100006320, symSize: 0x110 }
  - { offsetInCU: 0x145E9, offset: 0x145E9, size: 0x8, addend: 0x0, symName: __ZNSt3__117__compressed_pairIPNS_4pairIiiEENS_9allocatorIS2_EEEC1B8ue170006IDnNS_18__default_init_tagEEEOT_OT0_, symObjAddr: 0x5010, symBinAddr: 0x100006430, symSize: 0x30 }
  - { offsetInCU: 0x14641, offset: 0x14641, size: 0x8, addend: 0x0, symName: __ZNSt3__16vectorINS_4pairIiiEENS_9allocatorIS2_EEE16__destroy_vectorC1B8ue170006ERS5_, symObjAddr: 0x5080, symBinAddr: 0x1000064A0, symSize: 0x30 }
  - { offsetInCU: 0x1467A, offset: 0x1467A, size: 0x8, addend: 0x0, symName: __ZNKSt16initializer_listINSt3__14pairIiiEEE4sizeB8ue170006Ev, symObjAddr: 0x50B0, symBinAddr: 0x1000064D0, symSize: 0x20 }
  - { offsetInCU: 0x146A0, offset: 0x146A0, size: 0x8, addend: 0x0, symName: __ZNSt3__16vectorINS_4pairIiiEENS_9allocatorIS2_EEE11__vallocateB8ue170006Em, symObjAddr: 0x50D0, symBinAddr: 0x1000064F0, symSize: 0xA0 }
  - { offsetInCU: 0x146E4, offset: 0x146E4, size: 0x8, addend: 0x0, symName: __ZNSt3__16vectorINS_4pairIiiEENS_9allocatorIS2_EEE18__construct_at_endIPKS2_S8_EEvT_T0_m, symObjAddr: 0x5170, symBinAddr: 0x100006590, symSize: 0x90 }
  - { offsetInCU: 0x1475A, offset: 0x1475A, size: 0x8, addend: 0x0, symName: __ZNKSt16initializer_listINSt3__14pairIiiEEE5beginB8ue170006Ev, symObjAddr: 0x5200, symBinAddr: 0x100006620, symSize: 0x20 }
  - { offsetInCU: 0x14780, offset: 0x14780, size: 0x8, addend: 0x0, symName: __ZNKSt16initializer_listINSt3__14pairIiiEEE3endB8ue170006Ev, symObjAddr: 0x5220, symBinAddr: 0x100006640, symSize: 0x20 }
  - { offsetInCU: 0x147A6, offset: 0x147A6, size: 0x8, addend: 0x0, symName: __ZNSt3__128__exception_guard_exceptionsINS_6vectorINS_4pairIiiEENS_9allocatorIS3_EEE16__destroy_vectorEE10__completeB8ue170006Ev, symObjAddr: 0x5240, symBinAddr: 0x100006660, symSize: 0x20 }
  - { offsetInCU: 0x147CC, offset: 0x147CC, size: 0x8, addend: 0x0, symName: __ZNSt3__128__exception_guard_exceptionsINS_6vectorINS_4pairIiiEENS_9allocatorIS3_EEE16__destroy_vectorEED1B8ue170006Ev, symObjAddr: 0x5260, symBinAddr: 0x100006680, symSize: 0x20 }
  - { offsetInCU: 0x147F6, offset: 0x147F6, size: 0x8, addend: 0x0, symName: __ZNSt3__117__compressed_pairIPNS_4pairIiiEENS_9allocatorIS2_EEEC2B8ue170006IDnNS_18__default_init_tagEEEOT_OT0_, symObjAddr: 0x5280, symBinAddr: 0x1000066A0, symSize: 0x40 }
  - { offsetInCU: 0x1484E, offset: 0x1484E, size: 0x8, addend: 0x0, symName: __ZNSt3__122__compressed_pair_elemIPNS_4pairIiiEELi0ELb0EEC2B8ue170006IDnvEEOT_, symObjAddr: 0x52C0, symBinAddr: 0x1000066E0, symSize: 0x20 }
  - { offsetInCU: 0x14890, offset: 0x14890, size: 0x8, addend: 0x0, symName: __ZNSt3__122__compressed_pair_elemINS_9allocatorINS_4pairIiiEEEELi1ELb1EEC2B8ue170006ENS_18__default_init_tagE, symObjAddr: 0x52E0, symBinAddr: 0x100006700, symSize: 0x20 }
  - { offsetInCU: 0x148C5, offset: 0x148C5, size: 0x8, addend: 0x0, symName: __ZNSt3__19allocatorINS_4pairIiiEEEC2B8ue170006Ev, symObjAddr: 0x5300, symBinAddr: 0x100006720, symSize: 0x20 }
  - { offsetInCU: 0x148EF, offset: 0x148EF, size: 0x8, addend: 0x0, symName: __ZNSt3__116__non_trivial_ifILb1ENS_9allocatorINS_4pairIiiEEEEEC2B8ue170006Ev, symObjAddr: 0x5320, symBinAddr: 0x100006740, symSize: 0x10 }
  - { offsetInCU: 0x14919, offset: 0x14919, size: 0x8, addend: 0x0, symName: __ZNSt3__128__exception_guard_exceptionsINS_6vectorINS_4pairIiiEENS_9allocatorIS3_EEE16__destroy_vectorEEC1B8ue170006ES7_, symObjAddr: 0x5330, symBinAddr: 0x100006750, symSize: 0x30 }
  - { offsetInCU: 0x14951, offset: 0x14951, size: 0x8, addend: 0x0, symName: __ZNSt3__128__exception_guard_exceptionsINS_6vectorINS_4pairIiiEENS_9allocatorIS3_EEE16__destroy_vectorEEC2B8ue170006ES7_, symObjAddr: 0x5360, symBinAddr: 0x100006780, symSize: 0x20 }
  - { offsetInCU: 0x14989, offset: 0x14989, size: 0x8, addend: 0x0, symName: __ZNSt3__16vectorINS_4pairIiiEENS_9allocatorIS2_EEE16__destroy_vectorC2B8ue170006ERS5_, symObjAddr: 0x5380, symBinAddr: 0x1000067A0, symSize: 0x20 }
  - { offsetInCU: 0x149C2, offset: 0x149C2, size: 0x8, addend: 0x0, symName: __ZNKSt3__16vectorINS_4pairIiiEENS_9allocatorIS2_EEE8max_sizeEv, symObjAddr: 0x53A0, symBinAddr: 0x1000067C0, symSize: 0x60 }
  - { offsetInCU: 0x149EA, offset: 0x149EA, size: 0x8, addend: 0x0, symName: __ZNKSt3__16vectorINS_4pairIiiEENS_9allocatorIS2_EEE20__throw_length_errorB8ue170006Ev, symObjAddr: 0x5400, symBinAddr: 0x100006820, symSize: 0x20 }
  - { offsetInCU: 0x14A10, offset: 0x14A10, size: 0x8, addend: 0x0, symName: __ZNSt3__16vectorINS_4pairIiiEENS_9allocatorIS2_EEE7__allocB8ue170006Ev, symObjAddr: 0x5460, symBinAddr: 0x100006880, symSize: 0x20 }
  - { offsetInCU: 0x14A36, offset: 0x14A36, size: 0x8, addend: 0x0, symName: __ZNSt3__16vectorINS_4pairIiiEENS_9allocatorIS2_EEE9__end_capB8ue170006Ev, symObjAddr: 0x5480, symBinAddr: 0x1000068A0, symSize: 0x20 }
  - { offsetInCU: 0x14A5C, offset: 0x14A5C, size: 0x8, addend: 0x0, symName: __ZNKSt3__16vectorINS_4pairIiiEENS_9allocatorIS2_EEE14__annotate_newB8ue170006Em, symObjAddr: 0x54A0, symBinAddr: 0x1000068C0, symSize: 0xB0 }
  - { offsetInCU: 0x14A9B, offset: 0x14A9B, size: 0x8, addend: 0x0, symName: __ZNSt3__116allocator_traitsINS_9allocatorINS_4pairIiiEEEEE8max_sizeB8ue170006IS4_vEEmRKS4_, symObjAddr: 0x5550, symBinAddr: 0x100006970, symSize: 0x20 }
  - { offsetInCU: 0x14AC9, offset: 0x14AC9, size: 0x8, addend: 0x0, symName: __ZNKSt3__16vectorINS_4pairIiiEENS_9allocatorIS2_EEE7__allocB8ue170006Ev, symObjAddr: 0x5570, symBinAddr: 0x100006990, symSize: 0x20 }
  - { offsetInCU: 0x14AEF, offset: 0x14AEF, size: 0x8, addend: 0x0, symName: __ZNKSt3__19allocatorINS_4pairIiiEEE8max_sizeB8ue170006Ev, symObjAddr: 0x5590, symBinAddr: 0x1000069B0, symSize: 0x20 }
  - { offsetInCU: 0x14B15, offset: 0x14B15, size: 0x8, addend: 0x0, symName: __ZNKSt3__117__compressed_pairIPNS_4pairIiiEENS_9allocatorIS2_EEE6secondB8ue170006Ev, symObjAddr: 0x55B0, symBinAddr: 0x1000069D0, symSize: 0x20 }
  - { offsetInCU: 0x14B3B, offset: 0x14B3B, size: 0x8, addend: 0x0, symName: __ZNKSt3__122__compressed_pair_elemINS_9allocatorINS_4pairIiiEEEELi1ELb1EE5__getB8ue170006Ev, symObjAddr: 0x55D0, symBinAddr: 0x1000069F0, symSize: 0x10 }
  - { offsetInCU: 0x14B61, offset: 0x14B61, size: 0x8, addend: 0x0, symName: __ZNSt3__19allocatorINS_4pairIiiEEE8allocateB8ue170006Em, symObjAddr: 0x55E0, symBinAddr: 0x100006A00, symSize: 0x50 }
  - { offsetInCU: 0x14B95, offset: 0x14B95, size: 0x8, addend: 0x0, symName: __ZNSt3__117__compressed_pairIPNS_4pairIiiEENS_9allocatorIS2_EEE6secondB8ue170006Ev, symObjAddr: 0x5630, symBinAddr: 0x100006A50, symSize: 0x20 }
  - { offsetInCU: 0x14BBB, offset: 0x14BBB, size: 0x8, addend: 0x0, symName: __ZNSt3__122__compressed_pair_elemINS_9allocatorINS_4pairIiiEEEELi1ELb1EE5__getB8ue170006Ev, symObjAddr: 0x5650, symBinAddr: 0x100006A70, symSize: 0x10 }
  - { offsetInCU: 0x14BE1, offset: 0x14BE1, size: 0x8, addend: 0x0, symName: __ZNSt3__117__compressed_pairIPNS_4pairIiiEENS_9allocatorIS2_EEE5firstB8ue170006Ev, symObjAddr: 0x5660, symBinAddr: 0x100006A80, symSize: 0x20 }
  - { offsetInCU: 0x14C07, offset: 0x14C07, size: 0x8, addend: 0x0, symName: __ZNSt3__122__compressed_pair_elemIPNS_4pairIiiEELi0ELb0EE5__getB8ue170006Ev, symObjAddr: 0x5680, symBinAddr: 0x100006AA0, symSize: 0x10 }
  - { offsetInCU: 0x14C2D, offset: 0x14C2D, size: 0x8, addend: 0x0, symName: __ZNKSt3__16vectorINS_4pairIiiEENS_9allocatorIS2_EEE31__annotate_contiguous_containerB8ue170006EPKvS7_S7_S7_, symObjAddr: 0x5690, symBinAddr: 0x100006AB0, symSize: 0x20 }
  - { offsetInCU: 0x14C7F, offset: 0x14C7F, size: 0x8, addend: 0x0, symName: __ZNKSt3__16vectorINS_4pairIiiEENS_9allocatorIS2_EEE4dataB8ue170006Ev, symObjAddr: 0x56B0, symBinAddr: 0x100006AD0, symSize: 0x20 }
  - { offsetInCU: 0x14CA5, offset: 0x14CA5, size: 0x8, addend: 0x0, symName: __ZNKSt3__16vectorINS_4pairIiiEENS_9allocatorIS2_EEE8capacityB8ue170006Ev, symObjAddr: 0x56D0, symBinAddr: 0x100006AF0, symSize: 0x30 }
  - { offsetInCU: 0x14CCB, offset: 0x14CCB, size: 0x8, addend: 0x0, symName: __ZNKSt3__16vectorINS_4pairIiiEENS_9allocatorIS2_EEE9__end_capB8ue170006Ev, symObjAddr: 0x5710, symBinAddr: 0x100006B30, symSize: 0x20 }
  - { offsetInCU: 0x14CF1, offset: 0x14CF1, size: 0x8, addend: 0x0, symName: __ZNKSt3__117__compressed_pairIPNS_4pairIiiEENS_9allocatorIS2_EEE5firstB8ue170006Ev, symObjAddr: 0x5730, symBinAddr: 0x100006B50, symSize: 0x20 }
  - { offsetInCU: 0x14D17, offset: 0x14D17, size: 0x8, addend: 0x0, symName: __ZNKSt3__122__compressed_pair_elemIPNS_4pairIiiEELi0ELb0EE5__getB8ue170006Ev, symObjAddr: 0x5750, symBinAddr: 0x100006B70, symSize: 0x10 }
  - { offsetInCU: 0x14D56, offset: 0x14D56, size: 0x8, addend: 0x0, symName: __ZNSt3__16vectorINS_4pairIiiEENS_9allocatorIS2_EEE21_ConstructTransactionC1B8ue170006ERS5_m, symObjAddr: 0x5760, symBinAddr: 0x100006B80, symSize: 0x30 }
  - { offsetInCU: 0x14D9E, offset: 0x14D9E, size: 0x8, addend: 0x0, symName: __ZNSt3__16vectorINS_4pairIiiEENS_9allocatorIS2_EEE21_ConstructTransactionD1B8ue170006Ev, symObjAddr: 0x5810, symBinAddr: 0x100006C30, symSize: 0x20 }
  - { offsetInCU: 0x14DC8, offset: 0x14DC8, size: 0x8, addend: 0x0, symName: __ZNSt3__16vectorINS_4pairIiiEENS_9allocatorIS2_EEE21_ConstructTransactionC2B8ue170006ERS5_m, symObjAddr: 0x5830, symBinAddr: 0x100006C50, symSize: 0x40 }
  - { offsetInCU: 0x14E2E, offset: 0x14E2E, size: 0x8, addend: 0x0, symName: __ZNSt3__14pairIPKNS0_IiiEES3_EC1B8ue170006IS3_S3_LPv0EEEOT_OT0_, symObjAddr: 0x5A70, symBinAddr: 0x100006E90, symSize: 0x30 }
  - { offsetInCU: 0x14E8C, offset: 0x14E8C, size: 0x8, addend: 0x0, symName: __ZNSt3__14pairIPKNS0_IiiEES3_EC2B8ue170006IS3_S3_LPv0EEEOT_OT0_, symObjAddr: 0x5AA0, symBinAddr: 0x100006EC0, symSize: 0x30 }
  - { offsetInCU: 0x14EEA, offset: 0x14EEA, size: 0x8, addend: 0x0, symName: __ZNSt3__118__unwrap_iter_implIPKNS_4pairIiiEELb1EE8__unwrapB8ue170006ES4_, symObjAddr: 0x5AD0, symBinAddr: 0x100006EF0, symSize: 0x20 }
  - { offsetInCU: 0x14F0D, offset: 0x14F0D, size: 0x8, addend: 0x0, symName: __ZNSt3__129_AllocatorDestroyRangeReverseINS_9allocatorINS_4pairIiiEEEEPS3_EC1B8ue170006ERS4_RS5_S8_, symObjAddr: 0x5B60, symBinAddr: 0x100006F80, symSize: 0x40 }
  - { offsetInCU: 0x14F64, offset: 0x14F64, size: 0x8, addend: 0x0, symName: __ZNSt3__116allocator_traitsINS_9allocatorINS_4pairIiiEEEEE9constructB8ue170006IS3_JRKS3_EvEEvRS4_PT_DpOT0_, symObjAddr: 0x5BA0, symBinAddr: 0x100006FC0, symSize: 0x30 }
  - { offsetInCU: 0x14FBB, offset: 0x14FBB, size: 0x8, addend: 0x0, symName: __ZNSt3__128__exception_guard_exceptionsINS_29_AllocatorDestroyRangeReverseINS_9allocatorINS_4pairIiiEEEEPS4_EEE10__completeB8ue170006Ev, symObjAddr: 0x5BD0, symBinAddr: 0x100006FF0, symSize: 0x20 }
  - { offsetInCU: 0x14FE1, offset: 0x14FE1, size: 0x8, addend: 0x0, symName: __ZNSt3__128__exception_guard_exceptionsINS_29_AllocatorDestroyRangeReverseINS_9allocatorINS_4pairIiiEEEEPS4_EEED1B8ue170006Ev, symObjAddr: 0x5BF0, symBinAddr: 0x100007010, symSize: 0x20 }
  - { offsetInCU: 0x1500B, offset: 0x1500B, size: 0x8, addend: 0x0, symName: __ZNSt3__128__exception_guard_exceptionsINS_29_AllocatorDestroyRangeReverseINS_9allocatorINS_4pairIiiEEEEPS4_EEEC1B8ue170006ES7_, symObjAddr: 0x5C10, symBinAddr: 0x100007030, symSize: 0x40 }
  - { offsetInCU: 0x15043, offset: 0x15043, size: 0x8, addend: 0x0, symName: __ZNSt3__128__exception_guard_exceptionsINS_29_AllocatorDestroyRangeReverseINS_9allocatorINS_4pairIiiEEEEPS4_EEEC2B8ue170006ES7_, symObjAddr: 0x5C50, symBinAddr: 0x100007070, symSize: 0x30 }
  - { offsetInCU: 0x1507B, offset: 0x1507B, size: 0x8, addend: 0x0, symName: __ZNSt3__129_AllocatorDestroyRangeReverseINS_9allocatorINS_4pairIiiEEEEPS3_EC2B8ue170006ERS4_RS5_S8_, symObjAddr: 0x5C80, symBinAddr: 0x1000070A0, symSize: 0x40 }
  - { offsetInCU: 0x150D2, offset: 0x150D2, size: 0x8, addend: 0x0, symName: __ZNSt3__19allocatorINS_4pairIiiEEE9constructB8ue170006IS2_JRKS2_EEEvPT_DpOT0_, symObjAddr: 0x5CC0, symBinAddr: 0x1000070E0, symSize: 0x20 }
  - { offsetInCU: 0x15128, offset: 0x15128, size: 0x8, addend: 0x0, symName: __ZNSt3__128__exception_guard_exceptionsINS_29_AllocatorDestroyRangeReverseINS_9allocatorINS_4pairIiiEEEEPS4_EEED2B8ue170006Ev, symObjAddr: 0x5CE0, symBinAddr: 0x100007100, symSize: 0x40 }
  - { offsetInCU: 0x15152, offset: 0x15152, size: 0x8, addend: 0x0, symName: __ZNKSt3__129_AllocatorDestroyRangeReverseINS_9allocatorINS_4pairIiiEEEEPS3_EclB8ue170006Ev, symObjAddr: 0x5D20, symBinAddr: 0x100007140, symSize: 0x60 }
  - { offsetInCU: 0x15178, offset: 0x15178, size: 0x8, addend: 0x0, symName: __ZNSt3__116reverse_iteratorIPNS_4pairIiiEEEC1B8ue170006ES3_, symObjAddr: 0x5DF0, symBinAddr: 0x100007210, symSize: 0x30 }
  - { offsetInCU: 0x151B0, offset: 0x151B0, size: 0x8, addend: 0x0, symName: __ZNSt3__116allocator_traitsINS_9allocatorINS_4pairIiiEEEEE7destroyB8ue170006IS3_vEEvRS4_PT_, symObjAddr: 0x5E60, symBinAddr: 0x100007280, symSize: 0x30 }
  - { offsetInCU: 0x151ED, offset: 0x151ED, size: 0x8, addend: 0x0, symName: __ZNSt3__116reverse_iteratorIPNS_4pairIiiEEEppB8ue170006Ev, symObjAddr: 0x5EB0, symBinAddr: 0x1000072D0, symSize: 0x20 }
  - { offsetInCU: 0x15213, offset: 0x15213, size: 0x8, addend: 0x0, symName: __ZNKSt3__116reverse_iteratorIPNS_4pairIiiEEE4baseB8ue170006Ev, symObjAddr: 0x5ED0, symBinAddr: 0x1000072F0, symSize: 0x20 }
  - { offsetInCU: 0x15239, offset: 0x15239, size: 0x8, addend: 0x0, symName: __ZNSt3__19allocatorINS_4pairIiiEEE7destroyB8ue170006EPS2_, symObjAddr: 0x5EF0, symBinAddr: 0x100007310, symSize: 0x10 }
  - { offsetInCU: 0x15272, offset: 0x15272, size: 0x8, addend: 0x0, symName: __ZNSt3__119__to_address_helperINS_16reverse_iteratorIPNS_4pairIiiEEEEvE6__callB8ue170006ERKS5_, symObjAddr: 0x5F00, symBinAddr: 0x100007320, symSize: 0x40 }
  - { offsetInCU: 0x15295, offset: 0x15295, size: 0x8, addend: 0x0, symName: __ZNKSt3__116reverse_iteratorIPNS_4pairIiiEEEptB8ue170006Ev, symObjAddr: 0x5F40, symBinAddr: 0x100007360, symSize: 0x20 }
  - { offsetInCU: 0x152BB, offset: 0x152BB, size: 0x8, addend: 0x0, symName: __ZNKSt3__116reverse_iteratorIPNS_4pairIiiEEEdeB8ue170006Ev, symObjAddr: 0x5F60, symBinAddr: 0x100007380, symSize: 0x30 }
  - { offsetInCU: 0x152EF, offset: 0x152EF, size: 0x8, addend: 0x0, symName: __ZNSt3__116reverse_iteratorIPNS_4pairIiiEEEC2B8ue170006ES3_, symObjAddr: 0x5F90, symBinAddr: 0x1000073B0, symSize: 0x30 }
  - { offsetInCU: 0x15327, offset: 0x15327, size: 0x8, addend: 0x0, symName: __ZNSt3__118__unwrap_iter_implIPNS_4pairIiiEELb1EE8__unwrapB8ue170006ES3_, symObjAddr: 0x5FC0, symBinAddr: 0x1000073E0, symSize: 0x20 }
  - { offsetInCU: 0x1534A, offset: 0x1534A, size: 0x8, addend: 0x0, symName: __ZNSt3__118__unwrap_iter_implIPNS_4pairIiiEELb1EE8__rewrapB8ue170006ES3_S3_, symObjAddr: 0x5FE0, symBinAddr: 0x100007400, symSize: 0x50 }
  - { offsetInCU: 0x1537B, offset: 0x1537B, size: 0x8, addend: 0x0, symName: __ZNSt3__16vectorINS_4pairIiiEENS_9allocatorIS2_EEE21_ConstructTransactionD2B8ue170006Ev, symObjAddr: 0x6030, symBinAddr: 0x100007450, symSize: 0x20 }
  - { offsetInCU: 0x153A5, offset: 0x153A5, size: 0x8, addend: 0x0, symName: __ZNSt3__128__exception_guard_exceptionsINS_6vectorINS_4pairIiiEENS_9allocatorIS3_EEE16__destroy_vectorEED2B8ue170006Ev, symObjAddr: 0x6050, symBinAddr: 0x100007470, symSize: 0x40 }
  - { offsetInCU: 0x153CF, offset: 0x153CF, size: 0x8, addend: 0x0, symName: __ZNSt3__16vectorINS_4pairIiiEENS_9allocatorIS2_EEE16__destroy_vectorclB8ue170006Ev, symObjAddr: 0x6090, symBinAddr: 0x1000074B0, symSize: 0x80 }
  - { offsetInCU: 0x153F5, offset: 0x153F5, size: 0x8, addend: 0x0, symName: __ZNSt3__16vectorINS_4pairIiiEENS_9allocatorIS2_EEE7__clearB8ue170006Ev, symObjAddr: 0x6110, symBinAddr: 0x100007530, symSize: 0x20 }
  - { offsetInCU: 0x1541B, offset: 0x1541B, size: 0x8, addend: 0x0, symName: __ZNKSt3__16vectorINS_4pairIiiEENS_9allocatorIS2_EEE17__annotate_deleteB8ue170006Ev, symObjAddr: 0x6130, symBinAddr: 0x100007550, symSize: 0xB0 }
  - { offsetInCU: 0x15441, offset: 0x15441, size: 0x8, addend: 0x0, symName: __ZNSt3__116allocator_traitsINS_9allocatorINS_4pairIiiEEEEE10deallocateB8ue170006ERS4_PS3_m, symObjAddr: 0x61E0, symBinAddr: 0x100007600, symSize: 0x30 }
  - { offsetInCU: 0x15483, offset: 0x15483, size: 0x8, addend: 0x0, symName: __ZNSt3__16vectorINS_4pairIiiEENS_9allocatorIS2_EEE22__base_destruct_at_endB8ue170006EPS2_, symObjAddr: 0x6210, symBinAddr: 0x100007630, symSize: 0x80 }
  - { offsetInCU: 0x154C7, offset: 0x154C7, size: 0x8, addend: 0x0, symName: __ZNKSt3__16vectorINS_4pairIiiEENS_9allocatorIS2_EEE4sizeB8ue170006Ev, symObjAddr: 0x6290, symBinAddr: 0x1000076B0, symSize: 0x20 }
  - { offsetInCU: 0x154ED, offset: 0x154ED, size: 0x8, addend: 0x0, symName: __ZNSt3__19allocatorINS_4pairIiiEEE10deallocateB8ue170006EPS2_m, symObjAddr: 0x62B0, symBinAddr: 0x1000076D0, symSize: 0x40 }
  - { offsetInCU: 0x1552F, offset: 0x1552F, size: 0x8, addend: 0x0, symName: __ZNSt3__16vectorINS_4pairIiiEENS_9allocatorIS2_EEED2B8ue170006Ev, symObjAddr: 0x62F0, symBinAddr: 0x100007710, symSize: 0x40 }
  - { offsetInCU: 0x15559, offset: 0x15559, size: 0x8, addend: 0x0, symName: __ZNSt3__16vectorINS_4pairIiiEENS_9allocatorIS2_EEE11__make_iterB8ue170006EPS2_, symObjAddr: 0x6330, symBinAddr: 0x100007750, symSize: 0x30 }
  - { offsetInCU: 0x1558E, offset: 0x1558E, size: 0x8, addend: 0x0, symName: __ZNSt3__111__wrap_iterIPNS_4pairIiiEEEC1B8ue170006ES3_, symObjAddr: 0x6360, symBinAddr: 0x100007780, symSize: 0x30 }
  - { offsetInCU: 0x155C6, offset: 0x155C6, size: 0x8, addend: 0x0, symName: __ZNSt3__111__wrap_iterIPNS_4pairIiiEEEC2B8ue170006ES3_, symObjAddr: 0x6390, symBinAddr: 0x1000077B0, symSize: 0x20 }
  - { offsetInCU: 0x155FE, offset: 0x155FE, size: 0x8, addend: 0x0, symName: __ZNSt3__111char_traitsIcE6lengthB8ue170006EPKc, symObjAddr: 0x65A0, symBinAddr: 0x1000079C0, symSize: 0x30 }
  - { offsetInCU: 0x1563F, offset: 0x1563F, size: 0x8, addend: 0x0, symName: __ZNKSt3__113basic_ostreamIcNS_11char_traitsIcEEE6sentrycvbB8ue170006Ev, symObjAddr: 0x65D0, symBinAddr: 0x1000079F0, symSize: 0x20 }
  - { offsetInCU: 0x15665, offset: 0x15665, size: 0x8, addend: 0x0, symName: __ZNSt3__119ostreambuf_iteratorIcNS_11char_traitsIcEEEC1B8ue170006ERNS_13basic_ostreamIcS2_EE, symObjAddr: 0x6810, symBinAddr: 0x100007C30, symSize: 0x30 }
  - { offsetInCU: 0x1569D, offset: 0x1569D, size: 0x8, addend: 0x0, symName: __ZNKSt3__18ios_base5flagsB8ue170006Ev, symObjAddr: 0x6840, symBinAddr: 0x100007C60, symSize: 0x20 }
  - { offsetInCU: 0x156C5, offset: 0x156C5, size: 0x8, addend: 0x0, symName: __ZNKSt3__19basic_iosIcNS_11char_traitsIcEEE4fillB8ue170006Ev, symObjAddr: 0x6860, symBinAddr: 0x100007C80, symSize: 0x70 }
  - { offsetInCU: 0x156ED, offset: 0x156ED, size: 0x8, addend: 0x0, symName: __ZNKSt3__119ostreambuf_iteratorIcNS_11char_traitsIcEEE6failedB8ue170006Ev, symObjAddr: 0x68D0, symBinAddr: 0x100007CF0, symSize: 0x20 }
  - { offsetInCU: 0x15713, offset: 0x15713, size: 0x8, addend: 0x0, symName: __ZNSt3__19basic_iosIcNS_11char_traitsIcEEE8setstateB8ue170006Ej, symObjAddr: 0x68F0, symBinAddr: 0x100007D10, symSize: 0x30 }
  - { offsetInCU: 0x15748, offset: 0x15748, size: 0x8, addend: 0x0, symName: __ZNKSt3__18ios_base5widthB8ue170006Ev, symObjAddr: 0x6920, symBinAddr: 0x100007D40, symSize: 0x20 }
  - { offsetInCU: 0x15770, offset: 0x15770, size: 0x8, addend: 0x0, symName: __ZNSt3__115basic_streambufIcNS_11char_traitsIcEEE5sputnB8ue170006EPKcl, symObjAddr: 0x6940, symBinAddr: 0x100007D60, symSize: 0x30 }
  - { offsetInCU: 0x157B2, offset: 0x157B2, size: 0x8, addend: 0x0, symName: __ZNSt3__112basic_stringIcNS_11char_traitsIcEENS_9allocatorIcEEEC1B8ue170006Emc, symObjAddr: 0x6970, symBinAddr: 0x100007D90, symSize: 0x30 }
  - { offsetInCU: 0x157FA, offset: 0x157FA, size: 0x8, addend: 0x0, symName: __ZNSt3__112basic_stringIcNS_11char_traitsIcEENS_9allocatorIcEEE4dataB8ue170006Ev, symObjAddr: 0x69A0, symBinAddr: 0x100007DC0, symSize: 0x30 }
  - { offsetInCU: 0x15820, offset: 0x15820, size: 0x8, addend: 0x0, symName: __ZNSt3__18ios_base5widthB8ue170006El, symObjAddr: 0x69D0, symBinAddr: 0x100007DF0, symSize: 0x30 }
  - { offsetInCU: 0x15866, offset: 0x15866, size: 0x8, addend: 0x0, symName: __ZNSt3__112basic_stringIcNS_11char_traitsIcEENS_9allocatorIcEEEC2B8ue170006Emc, symObjAddr: 0x6A00, symBinAddr: 0x100007E20, symSize: 0x50 }
  - { offsetInCU: 0x158AE, offset: 0x158AE, size: 0x8, addend: 0x0, symName: __ZNSt3__117__compressed_pairINS_12basic_stringIcNS_11char_traitsIcEENS_9allocatorIcEEE5__repES5_EC1B8ue170006INS_18__default_init_tagESA_EEOT_OT0_, symObjAddr: 0x6A50, symBinAddr: 0x100007E70, symSize: 0x30 }
  - { offsetInCU: 0x15906, offset: 0x15906, size: 0x8, addend: 0x0, symName: __ZNSt3__117__compressed_pairINS_12basic_stringIcNS_11char_traitsIcEENS_9allocatorIcEEE5__repES5_EC2B8ue170006INS_18__default_init_tagESA_EEOT_OT0_, symObjAddr: 0x6A80, symBinAddr: 0x100007EA0, symSize: 0x30 }
  - { offsetInCU: 0x1595E, offset: 0x1595E, size: 0x8, addend: 0x0, symName: __ZNSt3__122__compressed_pair_elemINS_12basic_stringIcNS_11char_traitsIcEENS_9allocatorIcEEE5__repELi0ELb0EEC2B8ue170006ENS_18__default_init_tagE, symObjAddr: 0x6AB0, symBinAddr: 0x100007ED0, symSize: 0x10 }
  - { offsetInCU: 0x15993, offset: 0x15993, size: 0x8, addend: 0x0, symName: __ZNSt3__122__compressed_pair_elemINS_9allocatorIcEELi1ELb1EEC2B8ue170006ENS_18__default_init_tagE, symObjAddr: 0x6AC0, symBinAddr: 0x100007EE0, symSize: 0x20 }
  - { offsetInCU: 0x159C8, offset: 0x159C8, size: 0x8, addend: 0x0, symName: __ZNSt3__19allocatorIcEC2B8ue170006Ev, symObjAddr: 0x6AE0, symBinAddr: 0x100007F00, symSize: 0x20 }
  - { offsetInCU: 0x159F2, offset: 0x159F2, size: 0x8, addend: 0x0, symName: __ZNSt3__116__non_trivial_ifILb1ENS_9allocatorIcEEEC2B8ue170006Ev, symObjAddr: 0x6B00, symBinAddr: 0x100007F20, symSize: 0x10 }
  - { offsetInCU: 0x15A1C, offset: 0x15A1C, size: 0x8, addend: 0x0, symName: __ZNSt3__112basic_stringIcNS_11char_traitsIcEENS_9allocatorIcEEE13__get_pointerB8ue170006Ev, symObjAddr: 0x6B20, symBinAddr: 0x100007F40, symSize: 0x50 }
  - { offsetInCU: 0x15A42, offset: 0x15A42, size: 0x8, addend: 0x0, symName: __ZNKSt3__112basic_stringIcNS_11char_traitsIcEENS_9allocatorIcEEE9__is_longB8ue170006Ev, symObjAddr: 0x6B70, symBinAddr: 0x100007F90, symSize: 0x30 }
  - { offsetInCU: 0x15A68, offset: 0x15A68, size: 0x8, addend: 0x0, symName: __ZNSt3__112basic_stringIcNS_11char_traitsIcEENS_9allocatorIcEEE18__get_long_pointerB8ue170006Ev, symObjAddr: 0x6BA0, symBinAddr: 0x100007FC0, symSize: 0x20 }
  - { offsetInCU: 0x15A8E, offset: 0x15A8E, size: 0x8, addend: 0x0, symName: __ZNSt3__112basic_stringIcNS_11char_traitsIcEENS_9allocatorIcEEE19__get_short_pointerB8ue170006Ev, symObjAddr: 0x6BC0, symBinAddr: 0x100007FE0, symSize: 0x30 }
  - { offsetInCU: 0x15AB4, offset: 0x15AB4, size: 0x8, addend: 0x0, symName: __ZNKSt3__117__compressed_pairINS_12basic_stringIcNS_11char_traitsIcEENS_9allocatorIcEEE5__repES5_E5firstB8ue170006Ev, symObjAddr: 0x6BF0, symBinAddr: 0x100008010, symSize: 0x20 }
  - { offsetInCU: 0x15ADA, offset: 0x15ADA, size: 0x8, addend: 0x0, symName: __ZNKSt3__122__compressed_pair_elemINS_12basic_stringIcNS_11char_traitsIcEENS_9allocatorIcEEE5__repELi0ELb0EE5__getB8ue170006Ev, symObjAddr: 0x6C10, symBinAddr: 0x100008030, symSize: 0x10 }
  - { offsetInCU: 0x15B00, offset: 0x15B00, size: 0x8, addend: 0x0, symName: __ZNSt3__117__compressed_pairINS_12basic_stringIcNS_11char_traitsIcEENS_9allocatorIcEEE5__repES5_E5firstB8ue170006Ev, symObjAddr: 0x6C20, symBinAddr: 0x100008040, symSize: 0x20 }
  - { offsetInCU: 0x15B26, offset: 0x15B26, size: 0x8, addend: 0x0, symName: __ZNSt3__122__compressed_pair_elemINS_12basic_stringIcNS_11char_traitsIcEENS_9allocatorIcEEE5__repELi0ELb0EE5__getB8ue170006Ev, symObjAddr: 0x6C40, symBinAddr: 0x100008060, symSize: 0x10 }
  - { offsetInCU: 0x15B4C, offset: 0x15B4C, size: 0x8, addend: 0x0, symName: __ZNSt3__114pointer_traitsIPcE10pointer_toB8ue170006ERc, symObjAddr: 0x6C50, symBinAddr: 0x100008070, symSize: 0x10 }
  - { offsetInCU: 0x15B6F, offset: 0x15B6F, size: 0x8, addend: 0x0, symName: __ZNSt3__119ostreambuf_iteratorIcNS_11char_traitsIcEEEC2B8ue170006ERNS_13basic_ostreamIcS2_EE, symObjAddr: 0x6C60, symBinAddr: 0x100008080, symSize: 0x50 }
  - { offsetInCU: 0x15BA7, offset: 0x15BA7, size: 0x8, addend: 0x0, symName: __ZNKSt3__19basic_iosIcNS_11char_traitsIcEEE5rdbufB8ue170006Ev, symObjAddr: 0x6CB0, symBinAddr: 0x1000080D0, symSize: 0x20 }
  - { offsetInCU: 0x15BCF, offset: 0x15BCF, size: 0x8, addend: 0x0, symName: __ZNKSt3__18ios_base5rdbufB8ue170006Ev, symObjAddr: 0x6CD0, symBinAddr: 0x1000080F0, symSize: 0x20 }
  - { offsetInCU: 0x15BF5, offset: 0x15BF5, size: 0x8, addend: 0x0, symName: __ZNSt3__111char_traitsIcE11eq_int_typeB8ue170006Eii, symObjAddr: 0x6CF0, symBinAddr: 0x100008110, symSize: 0x20 }
  - { offsetInCU: 0x15C28, offset: 0x15C28, size: 0x8, addend: 0x0, symName: __ZNSt3__111char_traitsIcE3eofB8ue170006Ev, symObjAddr: 0x6D10, symBinAddr: 0x100008130, symSize: 0x10 }
  - { offsetInCU: 0x15C3C, offset: 0x15C3C, size: 0x8, addend: 0x0, symName: __ZNKSt3__19basic_iosIcNS_11char_traitsIcEEE5widenB8ue170006Ec, symObjAddr: 0x6D20, symBinAddr: 0x100008140, symSize: 0x80 }
  - { offsetInCU: 0x15CA5, offset: 0x15CA5, size: 0x8, addend: 0x0, symName: __ZNKSt3__15ctypeIcE5widenB8ue170006Ec, symObjAddr: 0x6DD0, symBinAddr: 0x1000081F0, symSize: 0x30 }
  - { offsetInCU: 0x15CDA, offset: 0x15CDA, size: 0x8, addend: 0x0, symName: __ZNSt3__18ios_base8setstateB8ue170006Ej, symObjAddr: 0x6E00, symBinAddr: 0x100008220, symSize: 0x30 }
  - { offsetInCU: 0x15D11, offset: 0x15D11, size: 0x8, addend: 0x0, symName: __ZNSt3__16vectorINS_5tupleIJiiiEEENS_9allocatorIS2_EEEC2B8ue170006ESt16initializer_listIS2_E, symObjAddr: 0x6E50, symBinAddr: 0x100008270, symSize: 0x110 }
  - { offsetInCU: 0x15D61, offset: 0x15D61, size: 0x8, addend: 0x0, symName: __ZNSt3__117__compressed_pairIPNS_5tupleIJiiiEEENS_9allocatorIS2_EEEC1B8ue170006IDnNS_18__default_init_tagEEEOT_OT0_, symObjAddr: 0x6F60, symBinAddr: 0x100008380, symSize: 0x30 }
  - { offsetInCU: 0x15DB9, offset: 0x15DB9, size: 0x8, addend: 0x0, symName: __ZNSt3__16vectorINS_5tupleIJiiiEEENS_9allocatorIS2_EEE16__destroy_vectorC1B8ue170006ERS5_, symObjAddr: 0x6FD0, symBinAddr: 0x1000083F0, symSize: 0x30 }
  - { offsetInCU: 0x15DF2, offset: 0x15DF2, size: 0x8, addend: 0x0, symName: __ZNKSt16initializer_listINSt3__15tupleIJiiiEEEE4sizeB8ue170006Ev, symObjAddr: 0x7000, symBinAddr: 0x100008420, symSize: 0x20 }
  - { offsetInCU: 0x15E18, offset: 0x15E18, size: 0x8, addend: 0x0, symName: __ZNSt3__16vectorINS_5tupleIJiiiEEENS_9allocatorIS2_EEE11__vallocateB8ue170006Em, symObjAddr: 0x7020, symBinAddr: 0x100008440, symSize: 0xA0 }
  - { offsetInCU: 0x15E5C, offset: 0x15E5C, size: 0x8, addend: 0x0, symName: __ZNSt3__16vectorINS_5tupleIJiiiEEENS_9allocatorIS2_EEE18__construct_at_endIPKS2_S8_EEvT_T0_m, symObjAddr: 0x70C0, symBinAddr: 0x1000084E0, symSize: 0x90 }
  - { offsetInCU: 0x15ED2, offset: 0x15ED2, size: 0x8, addend: 0x0, symName: __ZNKSt16initializer_listINSt3__15tupleIJiiiEEEE5beginB8ue170006Ev, symObjAddr: 0x7150, symBinAddr: 0x100008570, symSize: 0x20 }
  - { offsetInCU: 0x15EF8, offset: 0x15EF8, size: 0x8, addend: 0x0, symName: __ZNKSt16initializer_listINSt3__15tupleIJiiiEEEE3endB8ue170006Ev, symObjAddr: 0x7170, symBinAddr: 0x100008590, symSize: 0x20 }
  - { offsetInCU: 0x15F1E, offset: 0x15F1E, size: 0x8, addend: 0x0, symName: __ZNSt3__128__exception_guard_exceptionsINS_6vectorINS_5tupleIJiiiEEENS_9allocatorIS3_EEE16__destroy_vectorEE10__completeB8ue170006Ev, symObjAddr: 0x7190, symBinAddr: 0x1000085B0, symSize: 0x20 }
  - { offsetInCU: 0x15F44, offset: 0x15F44, size: 0x8, addend: 0x0, symName: __ZNSt3__128__exception_guard_exceptionsINS_6vectorINS_5tupleIJiiiEEENS_9allocatorIS3_EEE16__destroy_vectorEED1B8ue170006Ev, symObjAddr: 0x71B0, symBinAddr: 0x1000085D0, symSize: 0x20 }
  - { offsetInCU: 0x15F6E, offset: 0x15F6E, size: 0x8, addend: 0x0, symName: __ZNSt3__117__compressed_pairIPNS_5tupleIJiiiEEENS_9allocatorIS2_EEEC2B8ue170006IDnNS_18__default_init_tagEEEOT_OT0_, symObjAddr: 0x71D0, symBinAddr: 0x1000085F0, symSize: 0x40 }
  - { offsetInCU: 0x15FC6, offset: 0x15FC6, size: 0x8, addend: 0x0, symName: __ZNSt3__122__compressed_pair_elemIPNS_5tupleIJiiiEEELi0ELb0EEC2B8ue170006IDnvEEOT_, symObjAddr: 0x7210, symBinAddr: 0x100008630, symSize: 0x20 }
  - { offsetInCU: 0x16008, offset: 0x16008, size: 0x8, addend: 0x0, symName: __ZNSt3__122__compressed_pair_elemINS_9allocatorINS_5tupleIJiiiEEEEELi1ELb1EEC2B8ue170006ENS_18__default_init_tagE, symObjAddr: 0x7230, symBinAddr: 0x100008650, symSize: 0x20 }
  - { offsetInCU: 0x1603D, offset: 0x1603D, size: 0x8, addend: 0x0, symName: __ZNSt3__19allocatorINS_5tupleIJiiiEEEEC2B8ue170006Ev, symObjAddr: 0x7250, symBinAddr: 0x100008670, symSize: 0x20 }
  - { offsetInCU: 0x16067, offset: 0x16067, size: 0x8, addend: 0x0, symName: __ZNSt3__116__non_trivial_ifILb1ENS_9allocatorINS_5tupleIJiiiEEEEEEC2B8ue170006Ev, symObjAddr: 0x7270, symBinAddr: 0x100008690, symSize: 0x10 }
  - { offsetInCU: 0x16091, offset: 0x16091, size: 0x8, addend: 0x0, symName: __ZNSt3__128__exception_guard_exceptionsINS_6vectorINS_5tupleIJiiiEEENS_9allocatorIS3_EEE16__destroy_vectorEEC1B8ue170006ES7_, symObjAddr: 0x7280, symBinAddr: 0x1000086A0, symSize: 0x30 }
  - { offsetInCU: 0x160C9, offset: 0x160C9, size: 0x8, addend: 0x0, symName: __ZNSt3__128__exception_guard_exceptionsINS_6vectorINS_5tupleIJiiiEEENS_9allocatorIS3_EEE16__destroy_vectorEEC2B8ue170006ES7_, symObjAddr: 0x72B0, symBinAddr: 0x1000086D0, symSize: 0x20 }
  - { offsetInCU: 0x16101, offset: 0x16101, size: 0x8, addend: 0x0, symName: __ZNSt3__16vectorINS_5tupleIJiiiEEENS_9allocatorIS2_EEE16__destroy_vectorC2B8ue170006ERS5_, symObjAddr: 0x72D0, symBinAddr: 0x1000086F0, symSize: 0x20 }
  - { offsetInCU: 0x1613A, offset: 0x1613A, size: 0x8, addend: 0x0, symName: __ZNKSt3__16vectorINS_5tupleIJiiiEEENS_9allocatorIS2_EEE8max_sizeEv, symObjAddr: 0x72F0, symBinAddr: 0x100008710, symSize: 0x60 }
  - { offsetInCU: 0x16162, offset: 0x16162, size: 0x8, addend: 0x0, symName: __ZNKSt3__16vectorINS_5tupleIJiiiEEENS_9allocatorIS2_EEE20__throw_length_errorB8ue170006Ev, symObjAddr: 0x7350, symBinAddr: 0x100008770, symSize: 0x20 }
  - { offsetInCU: 0x16188, offset: 0x16188, size: 0x8, addend: 0x0, symName: __ZNSt3__16vectorINS_5tupleIJiiiEEENS_9allocatorIS2_EEE7__allocB8ue170006Ev, symObjAddr: 0x73B0, symBinAddr: 0x1000087D0, symSize: 0x20 }
  - { offsetInCU: 0x161AE, offset: 0x161AE, size: 0x8, addend: 0x0, symName: __ZNSt3__16vectorINS_5tupleIJiiiEEENS_9allocatorIS2_EEE9__end_capB8ue170006Ev, symObjAddr: 0x73D0, symBinAddr: 0x1000087F0, symSize: 0x20 }
  - { offsetInCU: 0x161D4, offset: 0x161D4, size: 0x8, addend: 0x0, symName: __ZNKSt3__16vectorINS_5tupleIJiiiEEENS_9allocatorIS2_EEE14__annotate_newB8ue170006Em, symObjAddr: 0x73F0, symBinAddr: 0x100008810, symSize: 0xA0 }
  - { offsetInCU: 0x16213, offset: 0x16213, size: 0x8, addend: 0x0, symName: __ZNSt3__116allocator_traitsINS_9allocatorINS_5tupleIJiiiEEEEEE8max_sizeB8ue170006IS4_vEEmRKS4_, symObjAddr: 0x7490, symBinAddr: 0x1000088B0, symSize: 0x20 }
  - { offsetInCU: 0x16241, offset: 0x16241, size: 0x8, addend: 0x0, symName: __ZNKSt3__16vectorINS_5tupleIJiiiEEENS_9allocatorIS2_EEE7__allocB8ue170006Ev, symObjAddr: 0x74B0, symBinAddr: 0x1000088D0, symSize: 0x20 }
  - { offsetInCU: 0x16267, offset: 0x16267, size: 0x8, addend: 0x0, symName: __ZNKSt3__19allocatorINS_5tupleIJiiiEEEE8max_sizeB8ue170006Ev, symObjAddr: 0x74D0, symBinAddr: 0x1000088F0, symSize: 0x20 }
  - { offsetInCU: 0x1628D, offset: 0x1628D, size: 0x8, addend: 0x0, symName: __ZNKSt3__117__compressed_pairIPNS_5tupleIJiiiEEENS_9allocatorIS2_EEE6secondB8ue170006Ev, symObjAddr: 0x74F0, symBinAddr: 0x100008910, symSize: 0x20 }
  - { offsetInCU: 0x162B3, offset: 0x162B3, size: 0x8, addend: 0x0, symName: __ZNKSt3__122__compressed_pair_elemINS_9allocatorINS_5tupleIJiiiEEEEELi1ELb1EE5__getB8ue170006Ev, symObjAddr: 0x7510, symBinAddr: 0x100008930, symSize: 0x10 }
  - { offsetInCU: 0x162D9, offset: 0x162D9, size: 0x8, addend: 0x0, symName: __ZNSt3__19allocatorINS_5tupleIJiiiEEEE8allocateB8ue170006Em, symObjAddr: 0x7520, symBinAddr: 0x100008940, symSize: 0x50 }
  - { offsetInCU: 0x1630D, offset: 0x1630D, size: 0x8, addend: 0x0, symName: __ZNSt3__117__compressed_pairIPNS_5tupleIJiiiEEENS_9allocatorIS2_EEE6secondB8ue170006Ev, symObjAddr: 0x7570, symBinAddr: 0x100008990, symSize: 0x20 }
  - { offsetInCU: 0x16333, offset: 0x16333, size: 0x8, addend: 0x0, symName: __ZNSt3__122__compressed_pair_elemINS_9allocatorINS_5tupleIJiiiEEEEELi1ELb1EE5__getB8ue170006Ev, symObjAddr: 0x7590, symBinAddr: 0x1000089B0, symSize: 0x10 }
  - { offsetInCU: 0x16359, offset: 0x16359, size: 0x8, addend: 0x0, symName: __ZNSt3__117__compressed_pairIPNS_5tupleIJiiiEEENS_9allocatorIS2_EEE5firstB8ue170006Ev, symObjAddr: 0x75A0, symBinAddr: 0x1000089C0, symSize: 0x20 }
  - { offsetInCU: 0x1637F, offset: 0x1637F, size: 0x8, addend: 0x0, symName: __ZNSt3__122__compressed_pair_elemIPNS_5tupleIJiiiEEELi0ELb0EE5__getB8ue170006Ev, symObjAddr: 0x75C0, symBinAddr: 0x1000089E0, symSize: 0x10 }
  - { offsetInCU: 0x163A5, offset: 0x163A5, size: 0x8, addend: 0x0, symName: __ZNKSt3__16vectorINS_5tupleIJiiiEEENS_9allocatorIS2_EEE31__annotate_contiguous_containerB8ue170006EPKvS7_S7_S7_, symObjAddr: 0x75D0, symBinAddr: 0x1000089F0, symSize: 0x20 }
  - { offsetInCU: 0x163F7, offset: 0x163F7, size: 0x8, addend: 0x0, symName: __ZNKSt3__16vectorINS_5tupleIJiiiEEENS_9allocatorIS2_EEE4dataB8ue170006Ev, symObjAddr: 0x75F0, symBinAddr: 0x100008A10, symSize: 0x20 }
  - { offsetInCU: 0x1641D, offset: 0x1641D, size: 0x8, addend: 0x0, symName: __ZNKSt3__16vectorINS_5tupleIJiiiEEENS_9allocatorIS2_EEE8capacityB8ue170006Ev, symObjAddr: 0x7610, symBinAddr: 0x100008A30, symSize: 0x40 }
  - { offsetInCU: 0x16443, offset: 0x16443, size: 0x8, addend: 0x0, symName: __ZNKSt3__16vectorINS_5tupleIJiiiEEENS_9allocatorIS2_EEE9__end_capB8ue170006Ev, symObjAddr: 0x7660, symBinAddr: 0x100008A80, symSize: 0x20 }
  - { offsetInCU: 0x16469, offset: 0x16469, size: 0x8, addend: 0x0, symName: __ZNKSt3__117__compressed_pairIPNS_5tupleIJiiiEEENS_9allocatorIS2_EEE5firstB8ue170006Ev, symObjAddr: 0x7680, symBinAddr: 0x100008AA0, symSize: 0x20 }
  - { offsetInCU: 0x1648F, offset: 0x1648F, size: 0x8, addend: 0x0, symName: __ZNKSt3__122__compressed_pair_elemIPNS_5tupleIJiiiEEELi0ELb0EE5__getB8ue170006Ev, symObjAddr: 0x76A0, symBinAddr: 0x100008AC0, symSize: 0x10 }
  - { offsetInCU: 0x164CE, offset: 0x164CE, size: 0x8, addend: 0x0, symName: __ZNSt3__16vectorINS_5tupleIJiiiEEENS_9allocatorIS2_EEE21_ConstructTransactionC1B8ue170006ERS5_m, symObjAddr: 0x76B0, symBinAddr: 0x100008AD0, symSize: 0x30 }
  - { offsetInCU: 0x16516, offset: 0x16516, size: 0x8, addend: 0x0, symName: __ZNSt3__16vectorINS_5tupleIJiiiEEENS_9allocatorIS2_EEE21_ConstructTransactionD1B8ue170006Ev, symObjAddr: 0x7760, symBinAddr: 0x100008B80, symSize: 0x20 }
  - { offsetInCU: 0x16540, offset: 0x16540, size: 0x8, addend: 0x0, symName: __ZNSt3__16vectorINS_5tupleIJiiiEEENS_9allocatorIS2_EEE21_ConstructTransactionC2B8ue170006ERS5_m, symObjAddr: 0x7780, symBinAddr: 0x100008BA0, symSize: 0x40 }
  - { offsetInCU: 0x165A6, offset: 0x165A6, size: 0x8, addend: 0x0, symName: __ZNSt3__14pairIPKNS_5tupleIJiiiEEES4_EC1B8ue170006IS4_S4_LPv0EEEOT_OT0_, symObjAddr: 0x79C0, symBinAddr: 0x100008DE0, symSize: 0x30 }
  - { offsetInCU: 0x16604, offset: 0x16604, size: 0x8, addend: 0x0, symName: __ZNSt3__14pairIPKNS_5tupleIJiiiEEES4_EC2B8ue170006IS4_S4_LPv0EEEOT_OT0_, symObjAddr: 0x79F0, symBinAddr: 0x100008E10, symSize: 0x30 }
  - { offsetInCU: 0x16662, offset: 0x16662, size: 0x8, addend: 0x0, symName: __ZNSt3__118__unwrap_iter_implIPKNS_5tupleIJiiiEEELb1EE8__unwrapB8ue170006ES4_, symObjAddr: 0x7A20, symBinAddr: 0x100008E40, symSize: 0x20 }
  - { offsetInCU: 0x16685, offset: 0x16685, size: 0x8, addend: 0x0, symName: __ZNSt3__129_AllocatorDestroyRangeReverseINS_9allocatorINS_5tupleIJiiiEEEEEPS3_EC1B8ue170006ERS4_RS5_S8_, symObjAddr: 0x7AB0, symBinAddr: 0x100008ED0, symSize: 0x40 }
  - { offsetInCU: 0x166DC, offset: 0x166DC, size: 0x8, addend: 0x0, symName: __ZNSt3__116allocator_traitsINS_9allocatorINS_5tupleIJiiiEEEEEE9constructB8ue170006IS3_JRKS3_EvEEvRS4_PT_DpOT0_, symObjAddr: 0x7AF0, symBinAddr: 0x100008F10, symSize: 0x30 }
  - { offsetInCU: 0x16733, offset: 0x16733, size: 0x8, addend: 0x0, symName: __ZNSt3__128__exception_guard_exceptionsINS_29_AllocatorDestroyRangeReverseINS_9allocatorINS_5tupleIJiiiEEEEEPS4_EEE10__completeB8ue170006Ev, symObjAddr: 0x7B20, symBinAddr: 0x100008F40, symSize: 0x20 }
  - { offsetInCU: 0x16759, offset: 0x16759, size: 0x8, addend: 0x0, symName: __ZNSt3__128__exception_guard_exceptionsINS_29_AllocatorDestroyRangeReverseINS_9allocatorINS_5tupleIJiiiEEEEEPS4_EEED1B8ue170006Ev, symObjAddr: 0x7B40, symBinAddr: 0x100008F60, symSize: 0x20 }
  - { offsetInCU: 0x16783, offset: 0x16783, size: 0x8, addend: 0x0, symName: __ZNSt3__128__exception_guard_exceptionsINS_29_AllocatorDestroyRangeReverseINS_9allocatorINS_5tupleIJiiiEEEEEPS4_EEEC1B8ue170006ES7_, symObjAddr: 0x7B60, symBinAddr: 0x100008F80, symSize: 0x40 }
  - { offsetInCU: 0x167BB, offset: 0x167BB, size: 0x8, addend: 0x0, symName: __ZNSt3__128__exception_guard_exceptionsINS_29_AllocatorDestroyRangeReverseINS_9allocatorINS_5tupleIJiiiEEEEEPS4_EEEC2B8ue170006ES7_, symObjAddr: 0x7BA0, symBinAddr: 0x100008FC0, symSize: 0x30 }
  - { offsetInCU: 0x167F3, offset: 0x167F3, size: 0x8, addend: 0x0, symName: __ZNSt3__129_AllocatorDestroyRangeReverseINS_9allocatorINS_5tupleIJiiiEEEEEPS3_EC2B8ue170006ERS4_RS5_S8_, symObjAddr: 0x7BD0, symBinAddr: 0x100008FF0, symSize: 0x40 }
  - { offsetInCU: 0x1684A, offset: 0x1684A, size: 0x8, addend: 0x0, symName: __ZNSt3__19allocatorINS_5tupleIJiiiEEEE9constructB8ue170006IS2_JRKS2_EEEvPT_DpOT0_, symObjAddr: 0x7C10, symBinAddr: 0x100009030, symSize: 0x30 }
  - { offsetInCU: 0x168A0, offset: 0x168A0, size: 0x8, addend: 0x0, symName: __ZNSt3__128__exception_guard_exceptionsINS_29_AllocatorDestroyRangeReverseINS_9allocatorINS_5tupleIJiiiEEEEEPS4_EEED2B8ue170006Ev, symObjAddr: 0x7C40, symBinAddr: 0x100009060, symSize: 0x40 }
  - { offsetInCU: 0x168CA, offset: 0x168CA, size: 0x8, addend: 0x0, symName: __ZNKSt3__129_AllocatorDestroyRangeReverseINS_9allocatorINS_5tupleIJiiiEEEEEPS3_EclB8ue170006Ev, symObjAddr: 0x7C80, symBinAddr: 0x1000090A0, symSize: 0x60 }
  - { offsetInCU: 0x168F0, offset: 0x168F0, size: 0x8, addend: 0x0, symName: __ZNSt3__116reverse_iteratorIPNS_5tupleIJiiiEEEEC1B8ue170006ES3_, symObjAddr: 0x7D50, symBinAddr: 0x100009170, symSize: 0x30 }
  - { offsetInCU: 0x16928, offset: 0x16928, size: 0x8, addend: 0x0, symName: __ZNSt3__116allocator_traitsINS_9allocatorINS_5tupleIJiiiEEEEEE7destroyB8ue170006IS3_vEEvRS4_PT_, symObjAddr: 0x7DC0, symBinAddr: 0x1000091E0, symSize: 0x30 }
  - { offsetInCU: 0x16965, offset: 0x16965, size: 0x8, addend: 0x0, symName: __ZNSt3__116reverse_iteratorIPNS_5tupleIJiiiEEEEppB8ue170006Ev, symObjAddr: 0x7E10, symBinAddr: 0x100009230, symSize: 0x20 }
  - { offsetInCU: 0x1698B, offset: 0x1698B, size: 0x8, addend: 0x0, symName: __ZNKSt3__116reverse_iteratorIPNS_5tupleIJiiiEEEE4baseB8ue170006Ev, symObjAddr: 0x7E30, symBinAddr: 0x100009250, symSize: 0x20 }
  - { offsetInCU: 0x169B1, offset: 0x169B1, size: 0x8, addend: 0x0, symName: __ZNSt3__19allocatorINS_5tupleIJiiiEEEE7destroyB8ue170006EPS2_, symObjAddr: 0x7E50, symBinAddr: 0x100009270, symSize: 0x10 }
  - { offsetInCU: 0x169EA, offset: 0x169EA, size: 0x8, addend: 0x0, symName: __ZNSt3__119__to_address_helperINS_16reverse_iteratorIPNS_5tupleIJiiiEEEEEvE6__callB8ue170006ERKS5_, symObjAddr: 0x7E60, symBinAddr: 0x100009280, symSize: 0x40 }
  - { offsetInCU: 0x16A0D, offset: 0x16A0D, size: 0x8, addend: 0x0, symName: __ZNKSt3__116reverse_iteratorIPNS_5tupleIJiiiEEEEptB8ue170006Ev, symObjAddr: 0x7EA0, symBinAddr: 0x1000092C0, symSize: 0x20 }
  - { offsetInCU: 0x16A33, offset: 0x16A33, size: 0x8, addend: 0x0, symName: __ZNKSt3__116reverse_iteratorIPNS_5tupleIJiiiEEEEdeB8ue170006Ev, symObjAddr: 0x7EC0, symBinAddr: 0x1000092E0, symSize: 0x30 }
  - { offsetInCU: 0x16A67, offset: 0x16A67, size: 0x8, addend: 0x0, symName: __ZNSt3__116reverse_iteratorIPNS_5tupleIJiiiEEEEC2B8ue170006ES3_, symObjAddr: 0x7EF0, symBinAddr: 0x100009310, symSize: 0x30 }
  - { offsetInCU: 0x16A9F, offset: 0x16A9F, size: 0x8, addend: 0x0, symName: __ZNSt3__118__unwrap_iter_implIPNS_5tupleIJiiiEEELb1EE8__unwrapB8ue170006ES3_, symObjAddr: 0x7F20, symBinAddr: 0x100009340, symSize: 0x20 }
  - { offsetInCU: 0x16AC2, offset: 0x16AC2, size: 0x8, addend: 0x0, symName: __ZNSt3__118__unwrap_iter_implIPNS_5tupleIJiiiEEELb1EE8__rewrapB8ue170006ES3_S3_, symObjAddr: 0x7F40, symBinAddr: 0x100009360, symSize: 0x60 }
  - { offsetInCU: 0x16AF3, offset: 0x16AF3, size: 0x8, addend: 0x0, symName: __ZNSt3__16vectorINS_5tupleIJiiiEEENS_9allocatorIS2_EEE21_ConstructTransactionD2B8ue170006Ev, symObjAddr: 0x7FA0, symBinAddr: 0x1000093C0, symSize: 0x20 }
  - { offsetInCU: 0x16B1D, offset: 0x16B1D, size: 0x8, addend: 0x0, symName: __ZNSt3__128__exception_guard_exceptionsINS_6vectorINS_5tupleIJiiiEEENS_9allocatorIS3_EEE16__destroy_vectorEED2B8ue170006Ev, symObjAddr: 0x7FC0, symBinAddr: 0x1000093E0, symSize: 0x40 }
  - { offsetInCU: 0x16B47, offset: 0x16B47, size: 0x8, addend: 0x0, symName: __ZNSt3__16vectorINS_5tupleIJiiiEEENS_9allocatorIS2_EEE16__destroy_vectorclB8ue170006Ev, symObjAddr: 0x8000, symBinAddr: 0x100009420, symSize: 0x80 }
  - { offsetInCU: 0x16B6D, offset: 0x16B6D, size: 0x8, addend: 0x0, symName: __ZNSt3__16vectorINS_5tupleIJiiiEEENS_9allocatorIS2_EEE7__clearB8ue170006Ev, symObjAddr: 0x8080, symBinAddr: 0x1000094A0, symSize: 0x20 }
  - { offsetInCU: 0x16B93, offset: 0x16B93, size: 0x8, addend: 0x0, symName: __ZNKSt3__16vectorINS_5tupleIJiiiEEENS_9allocatorIS2_EEE17__annotate_deleteB8ue170006Ev, symObjAddr: 0x80A0, symBinAddr: 0x1000094C0, symSize: 0xB0 }
  - { offsetInCU: 0x16BB9, offset: 0x16BB9, size: 0x8, addend: 0x0, symName: __ZNSt3__116allocator_traitsINS_9allocatorINS_5tupleIJiiiEEEEEE10deallocateB8ue170006ERS4_PS3_m, symObjAddr: 0x8150, symBinAddr: 0x100009570, symSize: 0x30 }
  - { offsetInCU: 0x16BFB, offset: 0x16BFB, size: 0x8, addend: 0x0, symName: __ZNSt3__16vectorINS_5tupleIJiiiEEENS_9allocatorIS2_EEE22__base_destruct_at_endB8ue170006EPS2_, symObjAddr: 0x8180, symBinAddr: 0x1000095A0, symSize: 0x80 }
  - { offsetInCU: 0x16C3F, offset: 0x16C3F, size: 0x8, addend: 0x0, symName: __ZNKSt3__16vectorINS_5tupleIJiiiEEENS_9allocatorIS2_EEE4sizeB8ue170006Ev, symObjAddr: 0x8200, symBinAddr: 0x100009620, symSize: 0x30 }
  - { offsetInCU: 0x16C65, offset: 0x16C65, size: 0x8, addend: 0x0, symName: __ZNSt3__19allocatorINS_5tupleIJiiiEEEE10deallocateB8ue170006EPS2_m, symObjAddr: 0x8230, symBinAddr: 0x100009650, symSize: 0x50 }
  - { offsetInCU: 0x16CA7, offset: 0x16CA7, size: 0x8, addend: 0x0, symName: __ZNSt3__16vectorINS_5tupleIJiiiEEENS_9allocatorIS2_EEED2B8ue170006Ev, symObjAddr: 0x8280, symBinAddr: 0x1000096A0, symSize: 0x40 }
  - { offsetInCU: 0x16CD1, offset: 0x16CD1, size: 0x8, addend: 0x0, symName: __ZNSt3__16vectorINS_5tupleIJiiiEEENS_9allocatorIS2_EEE11__make_iterB8ue170006EPS2_, symObjAddr: 0x82C0, symBinAddr: 0x1000096E0, symSize: 0x30 }
  - { offsetInCU: 0x16D06, offset: 0x16D06, size: 0x8, addend: 0x0, symName: __ZNSt3__111__wrap_iterIPNS_5tupleIJiiiEEEEC1B8ue170006ES3_, symObjAddr: 0x82F0, symBinAddr: 0x100009710, symSize: 0x30 }
  - { offsetInCU: 0x16D3E, offset: 0x16D3E, size: 0x8, addend: 0x0, symName: __ZNSt3__111__wrap_iterIPNS_5tupleIJiiiEEEEC2B8ue170006ES3_, symObjAddr: 0x8320, symBinAddr: 0x100009740, symSize: 0x19 }
...
