---
triple:          'x86_64-apple-darwin'
binary-path:     '/Volumes/SAMSUNG T5/Documents/GraphAlgorithmInC-/sssp'
relocations:
  - { offsetInCU: 0x4C, offset: 0x4C, size: 0x8, addend: 0x0, symName: __ZN4sssp7UNKNOWNE, symObjAddr: 0xBEB8, symBinAddr: 0x10000CB38, symSize: 0x0 }
  - { offsetInCU: 0x90CA, offset: 0x90CA, size: 0x8, addend: 0x0, symName: __ZNSt3__113__fill_n_trueB8ue170006INS_6vectorIbNS_9allocatorIbEEEEEEvNS_14__bit_iteratorIT_Lb0EXLi0EEEENS6_9size_typeE, symObjAddr: 0x5BC0, symBinAddr: 0x1000066A0, symSize: 0x140 }
  - { offsetInCU: 0x9190, offset: 0x9190, size: 0x8, addend: 0x0, symName: __ZNSt3__114__fill_n_falseB8ue170006INS_6vectorIbNS_9allocatorIbEEEEEEvNS_14__bit_iteratorIT_Lb0EXLi0EEEENS6_9size_typeE, symObjAddr: 0x5D30, symBinAddr: 0x100006810, symSize: 0x140 }
  - { offsetInCU: 0x9256, offset: 0x9256, size: 0x8, addend: 0x0, symName: __ZNSt3__117__floyd_sift_downB8ue170006INS_17_ClassicAlgPolicyERZN4sssp8dijkstraEiEUlNS_4pairIiiEES4_E_NS_11__wrap_iterIPS4_EEEET1_SA_OT0_NS_15iterator_traitsISA_E15difference_typeE, symObjAddr: 0x6640, symBinAddr: 0x100007120, symSize: 0x140 }
  - { offsetInCU: 0xB2A8, offset: 0xB2A8, size: 0x8, addend: 0x0, symName: __ZNSt3__124__put_character_sequenceB8ue170006IcNS_11char_traitsIcEEEERNS_13basic_ostreamIT_T0_EES7_PKS4_m, symObjAddr: 0xAEC0, symBinAddr: 0x10000B9A0, symSize: 0x1F0 }
  - { offsetInCU: 0xD025, offset: 0xD025, size: 0x8, addend: 0x0, symName: __ZNSt3__110make_tupleB8ue170006IJiiiEEENS_5tupleIJDpNS_18__unwrap_ref_decayIT_E4typeEEEEDpOS3_, symObjAddr: 0x940, symBinAddr: 0x100001420, symSize: 0x50 }
  - { offsetInCU: 0xD086, offset: 0xD086, size: 0x8, addend: 0x0, symName: __ZNSt3__1neB8ue170006IPNS_5tupleIJiiiEEEEEbRKNS_11__wrap_iterIT_EES8_, symObjAddr: 0xA20, symBinAddr: 0x100001500, symSize: 0x30 }
  - { offsetInCU: 0xD0C9, offset: 0xD0C9, size: 0x8, addend: 0x0, symName: __ZNSt3__13getB8ue170006ILm0EJiiiEEEONS_13tuple_elementIXT_ENS_5tupleIJDpT0_EEEE4typeEOS5_, symObjAddr: 0xA70, symBinAddr: 0x100001550, symSize: 0x20 }
  - { offsetInCU: 0xD116, offset: 0xD116, size: 0x8, addend: 0x0, symName: __ZNSt3__13getB8ue170006ILm1EJiiiEEEONS_13tuple_elementIXT_ENS_5tupleIJDpT0_EEEE4typeEOS5_, symObjAddr: 0xA90, symBinAddr: 0x100001570, symSize: 0x20 }
  - { offsetInCU: 0xD163, offset: 0xD163, size: 0x8, addend: 0x0, symName: __ZNSt3__13getB8ue170006ILm2EJiiiEEEONS_13tuple_elementIXT_ENS_5tupleIJDpT0_EEEE4typeEOS5_, symObjAddr: 0xAB0, symBinAddr: 0x100001590, symSize: 0x20 }
  - { offsetInCU: 0xD1B0, offset: 0xD1B0, size: 0x8, addend: 0x0, symName: __ZNSt3__19make_pairB8ue170006IRiS1_EENS_4pairINS_18__unwrap_ref_decayIT_E4typeENS3_IT0_E4typeEEEOS4_OS7_, symObjAddr: 0xB50, symBinAddr: 0x100001630, symSize: 0x30 }
  - { offsetInCU: 0xD1FF, offset: 0xD1FF, size: 0x8, addend: 0x0, symName: __ZNSt3__13getB8ue170006ILm0EiNS_6vectorIiNS_9allocatorIiEEEEEEONS_13tuple_elementIXT_ENS_4pairIT0_T1_EEE4typeEOS9_, symObjAddr: 0xD70, symBinAddr: 0x100001850, symSize: 0x20 }
  - { offsetInCU: 0xD249, offset: 0xD249, size: 0x8, addend: 0x0, symName: __ZNSt3__13getB8ue170006ILm1EiNS_6vectorIiNS_9allocatorIiEEEEEEONS_13tuple_elementIXT_ENS_4pairIT0_T1_EEE4typeEOS9_, symObjAddr: 0xD90, symBinAddr: 0x100001870, symSize: 0x20 }
  - { offsetInCU: 0xD293, offset: 0xD293, size: 0x8, addend: 0x0, symName: __ZNSt3__1lsB8ue170006INS_11char_traitsIcEEEERNS_13basic_ostreamIcT_EES6_PKc, symObjAddr: 0xDB0, symBinAddr: 0x100001890, symSize: 0x40 }
  - { offsetInCU: 0xD2D9, offset: 0xD2D9, size: 0x8, addend: 0x0, symName: __ZNSt3__1neB8ue170006IPiEEbRKNS_11__wrap_iterIT_EES6_, symObjAddr: 0xE50, symBinAddr: 0x100001930, symSize: 0x30 }
  - { offsetInCU: 0xD31C, offset: 0xD31C, size: 0x8, addend: 0x0, symName: __ZNSt3__14endlB8ue170006IcNS_11char_traitsIcEEEERNS_13basic_ostreamIT_T0_EES7_, symObjAddr: 0xEE0, symBinAddr: 0x1000019C0, symSize: 0x50 }
  - { offsetInCU: 0xD395, offset: 0xD395, size: 0x8, addend: 0x0, symName: __ZNSt3__1eqB8ue170006IPNS_5tupleIJiiiEEEEEbRKNS_11__wrap_iterIT_EES8_, symObjAddr: 0x1130, symBinAddr: 0x100001C10, symSize: 0x40 }
  - { offsetInCU: 0xD3D8, offset: 0xD3D8, size: 0x8, addend: 0x0, symName: __ZNSt3__122__make_exception_guardB8ue170006INS_6vectorINS1_INS_4pairIiiEENS_9allocatorIS3_EEEENS4_IS6_EEE16__destroy_vectorEEENS_28__exception_guard_exceptionsIT_EESB_, symObjAddr: 0x15E0, symBinAddr: 0x1000020C0, symSize: 0x40 }
  - { offsetInCU: 0xD40D, offset: 0xD40D, size: 0x8, addend: 0x0, symName: __ZNSt3__119__allocate_at_leastB8ue170006INS_9allocatorINS_6vectorINS_4pairIiiEENS1_IS4_EEEEEEEENS_19__allocation_resultINS_16allocator_traitsIT_E7pointerEEERSA_m, symObjAddr: 0x18B0, symBinAddr: 0x100002390, symSize: 0x40 }
  - { offsetInCU: 0xD450, offset: 0xD450, size: 0x8, addend: 0x0, symName: __ZNSt3__13minB8ue170006ImEERKT_S3_S3_, symObjAddr: 0x19D0, symBinAddr: 0x1000024B0, symSize: 0x30 }
  - { offsetInCU: 0xD67D, offset: 0xD67D, size: 0x8, addend: 0x0, symName: __ZNSt3__13minB8ue170006ImNS_6__lessIvvEEEERKT_S5_S5_T0_, symObjAddr: 0x1A40, symBinAddr: 0x100002520, symSize: 0x50 }
  - { offsetInCU: 0xD71C, offset: 0xD71C, size: 0x8, addend: 0x0, symName: __ZNSt3__120__throw_length_errorB8ue170006EPKc, symObjAddr: 0x1AF0, symBinAddr: 0x1000025D0, symSize: 0x70 }
  - { offsetInCU: 0xD746, offset: 0xD746, size: 0x8, addend: 0x0, symName: __ZNSt3__117__libcpp_allocateB8ue170006Emm, symObjAddr: 0x1C60, symBinAddr: 0x100002740, symSize: 0x60 }
  - { offsetInCU: 0xD7A0, offset: 0xD7A0, size: 0x8, addend: 0x0, symName: __ZNSt3__124__is_overaligned_for_newB8ue170006Em, symObjAddr: 0x1CC0, symBinAddr: 0x1000027A0, symSize: 0x20 }
  - { offsetInCU: 0xD7CE, offset: 0xD7CE, size: 0x8, addend: 0x0, symName: __ZNSt3__121__libcpp_operator_newB8ue170006IJmSt11align_val_tEEEPvDpT_, symObjAddr: 0x1CE0, symBinAddr: 0x1000027C0, symSize: 0x30 }
  - { offsetInCU: 0xD81B, offset: 0xD81B, size: 0x8, addend: 0x0, symName: __ZNSt3__121__libcpp_operator_newB8ue170006IJmEEEPvDpT_, symObjAddr: 0x1D10, symBinAddr: 0x1000027F0, symSize: 0x20 }
  - { offsetInCU: 0xD854, offset: 0xD854, size: 0x8, addend: 0x0, symName: __ZNSt3__112__to_addressB8ue170006INS_6vectorINS_4pairIiiEENS_9allocatorIS3_EEEEEEPT_S8_, symObjAddr: 0x1E10, symBinAddr: 0x1000028F0, symSize: 0x10 }
  - { offsetInCU: 0xD889, offset: 0xD889, size: 0x8, addend: 0x0, symName: __ZNSt3__130__uninitialized_allocator_copyB8ue170006INS_9allocatorINS_6vectorINS_4pairIiiEENS1_IS4_EEEEEEPS6_S8_S8_EET2_RT_T0_T1_S9_, symObjAddr: 0x1EA0, symBinAddr: 0x100002980, symSize: 0x80 }
  - { offsetInCU: 0xD926, offset: 0xD926, size: 0x8, addend: 0x0, symName: __ZNSt3__114__unwrap_rangeB8ue170006IPNS_6vectorINS_4pairIiiEENS_9allocatorIS3_EEEES7_EENS2_IT0_S8_EET_SA_, symObjAddr: 0x1F80, symBinAddr: 0x100002A60, symSize: 0x50 }
  - { offsetInCU: 0xD972, offset: 0xD972, size: 0x8, addend: 0x0, symName: __ZNSt3__135__uninitialized_allocator_copy_implB8ue170006INS_9allocatorINS_6vectorINS_4pairIiiEENS1_IS4_EEEEEEPS6_S8_S8_EET2_RT_T0_T1_S9_, symObjAddr: 0x1FD0, symBinAddr: 0x100002AB0, symSize: 0x100 }
  - { offsetInCU: 0xDA10, offset: 0xDA10, size: 0x8, addend: 0x0, symName: __ZNSt3__113__unwrap_iterB8ue170006IPNS_6vectorINS_4pairIiiEENS_9allocatorIS3_EEEENS_18__unwrap_iter_implIS7_Lb1EEELi0EEEDTclsrT0_8__unwrapclsr3stdE7declvalIT_EEEESB_, symObjAddr: 0x20D0, symBinAddr: 0x100002BB0, symSize: 0x20 }
  - { offsetInCU: 0xDA54, offset: 0xDA54, size: 0x8, addend: 0x0, symName: __ZNSt3__113__rewrap_iterB8ue170006IPNS_6vectorINS_4pairIiiEENS_9allocatorIS3_EEEES7_NS_18__unwrap_iter_implIS7_Lb1EEEEET_SA_T0_, symObjAddr: 0x20F0, symBinAddr: 0x100002BD0, symSize: 0x40 }
  - { offsetInCU: 0xDAA9, offset: 0xDAA9, size: 0x8, addend: 0x0, symName: __ZNSt3__19make_pairB8ue170006IPNS_6vectorINS_4pairIiiEENS_9allocatorIS3_EEEES7_EENS2_INS_18__unwrap_ref_decayIT_E4typeENS8_IT0_E4typeEEEOS9_OSC_, symObjAddr: 0x2130, symBinAddr: 0x100002C10, symSize: 0x30 }
  - { offsetInCU: 0xDBCC, offset: 0xDBCC, size: 0x8, addend: 0x0, symName: __ZNSt3__122__make_exception_guardB8ue170006INS_29_AllocatorDestroyRangeReverseINS_9allocatorINS_6vectorINS_4pairIiiEENS2_IS5_EEEEEEPS7_EEEENS_28__exception_guard_exceptionsIT_EESC_, symObjAddr: 0x21C0, symBinAddr: 0x100002CA0, symSize: 0x60 }
  - { offsetInCU: 0xDC01, offset: 0xDC01, size: 0x8, addend: 0x0, symName: __ZNSt3__122__make_exception_guardB8ue170006INS_6vectorINS_4pairIiiEENS_9allocatorIS3_EEE16__destroy_vectorEEENS_28__exception_guard_exceptionsIT_EES9_, symObjAddr: 0x2650, symBinAddr: 0x100003130, symSize: 0x40 }
  - { offsetInCU: 0xDC36, offset: 0xDC36, size: 0x8, addend: 0x0, symName: __ZNSt3__119__allocate_at_leastB8ue170006INS_9allocatorINS_4pairIiiEEEEEENS_19__allocation_resultINS_16allocator_traitsIT_E7pointerEEERS7_m, symObjAddr: 0x2920, symBinAddr: 0x100003400, symSize: 0x40 }
  - { offsetInCU: 0xDC79, offset: 0xDC79, size: 0x8, addend: 0x0, symName: __ZNSt3__112__to_addressB8ue170006INS_4pairIiiEEEEPT_S4_, symObjAddr: 0x2BB0, symBinAddr: 0x100003690, symSize: 0x10 }
  - { offsetInCU: 0xDCAE, offset: 0xDCAE, size: 0x8, addend: 0x0, symName: __ZNSt3__130__uninitialized_allocator_copyB8ue170006INS_9allocatorINS_4pairIiiEEEEPS3_S5_S5_EET2_RT_T0_T1_S6_, symObjAddr: 0x2C40, symBinAddr: 0x100003720, symSize: 0x80 }
  - { offsetInCU: 0xDD4B, offset: 0xDD4B, size: 0x8, addend: 0x0, symName: __ZNSt3__114__unwrap_rangeB8ue170006IPNS_4pairIiiEES3_EENS1_IT0_S4_EET_S6_, symObjAddr: 0x2D20, symBinAddr: 0x100003800, symSize: 0x50 }
  - { offsetInCU: 0xDD97, offset: 0xDD97, size: 0x8, addend: 0x0, symName: __ZNSt3__135__uninitialized_allocator_copy_implB8ue170006INS_9allocatorINS_4pairIiiEEEEPS3_S5_S5_EET2_RT_T0_T1_S6_, symObjAddr: 0x2D70, symBinAddr: 0x100003850, symSize: 0x100 }
  - { offsetInCU: 0xDE35, offset: 0xDE35, size: 0x8, addend: 0x0, symName: __ZNSt3__113__unwrap_iterB8ue170006IPNS_4pairIiiEENS_18__unwrap_iter_implIS3_Lb1EEELi0EEEDTclsrT0_8__unwrapclsr3stdE7declvalIT_EEEES7_, symObjAddr: 0x2E70, symBinAddr: 0x100003950, symSize: 0x20 }
  - { offsetInCU: 0xDE79, offset: 0xDE79, size: 0x8, addend: 0x0, symName: __ZNSt3__113__rewrap_iterB8ue170006IPNS_4pairIiiEES3_NS_18__unwrap_iter_implIS3_Lb1EEEEET_S6_T0_, symObjAddr: 0x2E90, symBinAddr: 0x100003970, symSize: 0x40 }
  - { offsetInCU: 0xDECE, offset: 0xDECE, size: 0x8, addend: 0x0, symName: __ZNSt3__19make_pairB8ue170006IPNS_4pairIiiEES3_EENS1_INS_18__unwrap_ref_decayIT_E4typeENS4_IT0_E4typeEEEOS5_OS8_, symObjAddr: 0x2ED0, symBinAddr: 0x1000039B0, symSize: 0x30 }
  - { offsetInCU: 0xDFF1, offset: 0xDFF1, size: 0x8, addend: 0x0, symName: __ZNSt3__122__make_exception_guardB8ue170006INS_29_AllocatorDestroyRangeReverseINS_9allocatorINS_4pairIiiEEEEPS4_EEEENS_28__exception_guard_exceptionsIT_EES9_, symObjAddr: 0x2F60, symBinAddr: 0x100003A40, symSize: 0x60 }
  - { offsetInCU: 0xE026, offset: 0xE026, size: 0x8, addend: 0x0, symName: __ZNSt3__119__allocator_destroyB8ue170006INS_9allocatorINS_4pairIiiEEEENS_16reverse_iteratorIPS3_EES7_EEvRT_T0_T1_, symObjAddr: 0x31E0, symBinAddr: 0x100003CC0, symSize: 0x70 }
  - { offsetInCU: 0xE089, offset: 0xE089, size: 0x8, addend: 0x0, symName: __ZNSt3__1neB8ue170006IPNS_4pairIiiEES3_EEbRKNS_16reverse_iteratorIT_EERKNS4_IT0_EE, symObjAddr: 0x3280, symBinAddr: 0x100003D60, symSize: 0x40 }
  - { offsetInCU: 0xE0D5, offset: 0xE0D5, size: 0x8, addend: 0x0, symName: __ZNSt3__112__to_addressB8ue170006INS_16reverse_iteratorIPNS_4pairIiiEEEEvEEu7__decayIDTclsr19__to_address_helperIT_EE6__callclsr3stdE7declvalIRKS6_EEEEES8_, symObjAddr: 0x32F0, symBinAddr: 0x100003DD0, symSize: 0x20 }
  - { offsetInCU: 0xE187, offset: 0xE187, size: 0x8, addend: 0x0, symName: __ZNSt3__119__libcpp_deallocateB8ue170006EPvmm, symObjAddr: 0x3730, symBinAddr: 0x100004210, symSize: 0x60 }
  - { offsetInCU: 0xE1EC, offset: 0xE1EC, size: 0x8, addend: 0x0, symName: __ZNSt3__127__do_deallocate_handle_sizeB8ue170006IJSt11align_val_tEEEvPvmDpT_, symObjAddr: 0x3790, symBinAddr: 0x100004270, symSize: 0x30 }
  - { offsetInCU: 0xE23F, offset: 0xE23F, size: 0x8, addend: 0x0, symName: __ZNSt3__127__do_deallocate_handle_sizeB8ue170006IJEEEvPvmDpT_, symObjAddr: 0x37C0, symBinAddr: 0x1000042A0, symSize: 0x20 }
  - { offsetInCU: 0xE27D, offset: 0xE27D, size: 0x8, addend: 0x0, symName: __ZNSt3__124__libcpp_operator_deleteB8ue170006IJPvSt11align_val_tEEEvDpT_, symObjAddr: 0x37E0, symBinAddr: 0x1000042C0, symSize: 0x30 }
  - { offsetInCU: 0xE2C6, offset: 0xE2C6, size: 0x8, addend: 0x0, symName: __ZNSt3__124__libcpp_operator_deleteB8ue170006IJPvEEEvDpT_, symObjAddr: 0x3810, symBinAddr: 0x1000042F0, symSize: 0x20 }
  - { offsetInCU: 0xE2FB, offset: 0xE2FB, size: 0x8, addend: 0x0, symName: __ZNSt3__119__allocator_destroyB8ue170006INS_9allocatorINS_6vectorINS_4pairIiiEENS1_IS4_EEEEEENS_16reverse_iteratorIPS6_EESA_EEvRT_T0_T1_, symObjAddr: 0x38D0, symBinAddr: 0x1000043B0, symSize: 0x70 }
  - { offsetInCU: 0xE35E, offset: 0xE35E, size: 0x8, addend: 0x0, symName: __ZNSt3__1neB8ue170006IPNS_6vectorINS_4pairIiiEENS_9allocatorIS3_EEEES7_EEbRKNS_16reverse_iteratorIT_EERKNS8_IT0_EE, symObjAddr: 0x3970, symBinAddr: 0x100004450, symSize: 0x40 }
  - { offsetInCU: 0xE3AA, offset: 0xE3AA, size: 0x8, addend: 0x0, symName: __ZNSt3__112__to_addressB8ue170006INS_16reverse_iteratorIPNS_6vectorINS_4pairIiiEENS_9allocatorIS4_EEEEEEvEEu7__decayIDTclsr19__to_address_helperIT_EE6__callclsr3stdE7declvalIRKSA_EEEEESC_, symObjAddr: 0x39E0, symBinAddr: 0x1000044C0, symSize: 0x20 }
  - { offsetInCU: 0xE45C, offset: 0xE45C, size: 0x8, addend: 0x0, symName: __ZNSt3__122__make_exception_guardB8ue170006INS_6vectorIiNS_9allocatorIiEEE16__destroy_vectorEEENS_28__exception_guard_exceptionsIT_EES7_, symObjAddr: 0x3FC0, symBinAddr: 0x100004AA0, symSize: 0x40 }
  - { offsetInCU: 0xE491, offset: 0xE491, size: 0x8, addend: 0x0, symName: __ZNSt3__119__allocate_at_leastB8ue170006INS_9allocatorIiEEEENS_19__allocation_resultINS_16allocator_traitsIT_E7pointerEEERS5_m, symObjAddr: 0x4370, symBinAddr: 0x100004E50, symSize: 0x40 }
  - { offsetInCU: 0xE4D4, offset: 0xE4D4, size: 0x8, addend: 0x0, symName: __ZNSt3__112__to_addressB8ue170006IiEEPT_S2_, symObjAddr: 0x4650, symBinAddr: 0x100005130, symSize: 0x10 }
  - { offsetInCU: 0xE509, offset: 0xE509, size: 0x8, addend: 0x0, symName: __ZNSt3__17reverseB8ue170006INS_11__wrap_iterIPiEEEEvT_S4_, symObjAddr: 0x5000, symBinAddr: 0x100005AE0, symSize: 0x40 }
  - { offsetInCU: 0xE548, offset: 0xE548, size: 0x8, addend: 0x0, symName: __ZNSt3__19make_pairB8ue170006IRiRNS_6vectorIiNS_9allocatorIiEEEEEENS_4pairINS_18__unwrap_ref_decayIT_E4typeENS8_IT0_E4typeEEEOS9_OSC_, symObjAddr: 0x5040, symBinAddr: 0x100005B20, symSize: 0x40 }
  - { offsetInCU: 0xE792, offset: 0xE792, size: 0x8, addend: 0x0, symName: __ZNSt3__19make_pairB8ue170006IRiiEENS_4pairINS_18__unwrap_ref_decayIT_E4typeENS3_IT0_E4typeEEEOS4_OS7_, symObjAddr: 0x5130, symBinAddr: 0x100005C10, symSize: 0x30 }
  - { offsetInCU: 0xE7E1, offset: 0xE7E1, size: 0x8, addend: 0x0, symName: __ZNSt3__13getB8ue170006ILm0EiiEEONS_13tuple_elementIXT_ENS_4pairIT0_T1_EEE4typeEOS5_, symObjAddr: 0x51A0, symBinAddr: 0x100005C80, symSize: 0x20 }
  - { offsetInCU: 0xE82B, offset: 0xE82B, size: 0x8, addend: 0x0, symName: __ZNSt3__13getB8ue170006ILm1EiiEEONS_13tuple_elementIXT_ENS_4pairIT0_T1_EEE4typeEOS5_, symObjAddr: 0x51C0, symBinAddr: 0x100005CA0, symSize: 0x20 }
  - { offsetInCU: 0xE875, offset: 0xE875, size: 0x8, addend: 0x0, symName: __ZNSt3__1neB8ue170006IPNS_4pairIiiEEEEbRKNS_11__wrap_iterIT_EES8_, symObjAddr: 0x5360, symBinAddr: 0x100005E40, symSize: 0x30 }
  - { offsetInCU: 0xE8B8, offset: 0xE8B8, size: 0x8, addend: 0x0, symName: __ZNSt3__119__allocate_at_leastB8ue170006INS_9allocatorImEEEENS_19__allocation_resultINS_16allocator_traitsIT_E7pointerEEERS5_m, symObjAddr: 0x58D0, symBinAddr: 0x1000063B0, symSize: 0x40 }
  - { offsetInCU: 0xEAE7, offset: 0xEAE7, size: 0x8, addend: 0x0, symName: __ZNSt3__16fill_nB8ue170006INS_6vectorIbNS_9allocatorIbEEEEEEvNS_14__bit_iteratorIT_Lb0EXLi0EEEENS6_9size_typeEb, symObjAddr: 0x5AF0, symBinAddr: 0x1000065D0, symSize: 0x80 }
  - { offsetInCU: 0xEB39, offset: 0xEB39, size: 0x8, addend: 0x0, symName: __ZNSt3__16fill_nB8ue170006IPmmmEET_S2_T0_RKT1_, symObjAddr: 0x5E70, symBinAddr: 0x100006950, symSize: 0x40 }
  - { offsetInCU: 0xEB9C, offset: 0xEB9C, size: 0x8, addend: 0x0, symName: __ZNSt3__112__to_addressB8ue170006ImEEPT_S2_, symObjAddr: 0x5EB0, symBinAddr: 0x100006990, symSize: 0x10 }
  - { offsetInCU: 0xEBD1, offset: 0xEBD1, size: 0x8, addend: 0x0, symName: __ZNSt3__18__fill_nB8ue170006IPmmmEET_S2_T0_RKT1_, symObjAddr: 0x5EC0, symBinAddr: 0x1000069A0, symSize: 0x50 }
  - { offsetInCU: 0xEC34, offset: 0xEC34, size: 0x8, addend: 0x0, symName: __ZNSt3__121__convert_to_integralB8ue170006Em, symObjAddr: 0x5F10, symBinAddr: 0x1000069F0, symSize: 0x10 }
  - { offsetInCU: 0xEC60, offset: 0xEC60, size: 0x8, addend: 0x0, symName: __ZNSt3__16fill_nB8ue170006IPmmiEET_S2_T0_RKT1_, symObjAddr: 0x5F50, symBinAddr: 0x100006A30, symSize: 0x40 }
  - { offsetInCU: 0xECC3, offset: 0xECC3, size: 0x8, addend: 0x0, symName: __ZNSt3__18__fill_nB8ue170006IPmmiEET_S2_T0_RKT1_, symObjAddr: 0x5F90, symBinAddr: 0x100006A70, symSize: 0x50 }
  - { offsetInCU: 0xED26, offset: 0xED26, size: 0x8, addend: 0x0, symName: __ZNSt3__19push_heapB8ue170006INS_11__wrap_iterIPNS_4pairIiiEEEEZN4sssp8dijkstraEiEUlS3_S3_E_EEvT_S8_T0_, symObjAddr: 0x6040, symBinAddr: 0x100006B20, symSize: 0x40 }
  - { offsetInCU: 0xED7C, offset: 0xED7C, size: 0x8, addend: 0x0, symName: __ZNSt3__111__push_heapB8ue170006INS_17_ClassicAlgPolicyENS_11__wrap_iterIPNS_4pairIiiEEEEZN4sssp8dijkstraEiEUlS4_S4_E_EEvT0_S9_RT1_, symObjAddr: 0x6080, symBinAddr: 0x100006B60, symSize: 0x50 }
  - { offsetInCU: 0xEDE9, offset: 0xEDE9, size: 0x8, addend: 0x0, symName: __ZNSt3__1miB8ue170006IPNS_4pairIiiEES3_EEDTmicldtfp_4baseEcldtfp0_4baseEERKNS_11__wrap_iterIT_EERKNS5_IT0_EE, symObjAddr: 0x60D0, symBinAddr: 0x100006BB0, symSize: 0x40 }
  - { offsetInCU: 0xEE35, offset: 0xEE35, size: 0x8, addend: 0x0, symName: __ZNSt3__19__sift_upB8ue170006INS_17_ClassicAlgPolicyERZN4sssp8dijkstraEiEUlNS_4pairIiiEES4_E_NS_11__wrap_iterIPS4_EEEEvT1_SA_OT0_NS_15iterator_traitsISA_E15difference_typeE, symObjAddr: 0x6110, symBinAddr: 0x100006BF0, symSize: 0x170 }
  - { offsetInCU: 0xF07D, offset: 0xF07D, size: 0x8, addend: 0x0, symName: __ZNSt3__18pop_heapB8ue170006INS_11__wrap_iterIPNS_4pairIiiEEEEZN4sssp8dijkstraEiEUlS3_S3_E_EEvT_S8_T0_, symObjAddr: 0x64A0, symBinAddr: 0x100006F80, symSize: 0x50 }
  - { offsetInCU: 0xF0E1, offset: 0xF0E1, size: 0x8, addend: 0x0, symName: __ZNSt3__110__pop_heapB8ue170006INS_17_ClassicAlgPolicyEZN4sssp8dijkstraEiEUlNS_4pairIiiEES4_E_NS_11__wrap_iterIPS4_EEEEvT1_S9_RT0_NS_15iterator_traitsIS9_E15difference_typeE, symObjAddr: 0x6520, symBinAddr: 0x100007000, symSize: 0x120 }
  - { offsetInCU: 0xF191, offset: 0xF191, size: 0x8, addend: 0x0, symName: __ZNSt3__1eqB8ue170006IPNS_4pairIiiEEEEbRKNS_11__wrap_iterIT_EES8_, symObjAddr: 0x6780, symBinAddr: 0x100007260, symSize: 0x40 }
  - { offsetInCU: 0xF1D4, offset: 0xF1D4, size: 0x8, addend: 0x0, symName: __ZNSt3__13maxB8ue170006ImEERKT_S3_S3_, symObjAddr: 0x6FC0, symBinAddr: 0x100007AA0, symSize: 0x30 }
  - { offsetInCU: 0xF217, offset: 0xF217, size: 0x8, addend: 0x0, symName: __ZNSt3__13maxB8ue170006ImNS_6__lessIvvEEEERKT_S5_S5_T0_, symObjAddr: 0x6FF0, symBinAddr: 0x100007AD0, symSize: 0x50 }
  - { offsetInCU: 0xF271, offset: 0xF271, size: 0x8, addend: 0x0, symName: __ZNSt3__142__uninitialized_allocator_move_if_noexceptB8ue170006INS_9allocatorIiEENS_16reverse_iteratorIPiEES5_ivEET1_RT_T0_S9_S6_, symObjAddr: 0x7240, symBinAddr: 0x100007D20, symSize: 0x70 }
  - { offsetInCU: 0xF2ED, offset: 0xF2ED, size: 0x8, addend: 0x0, symName: __ZNSt3__14swapB8ue170006IPiEENS_9enable_ifIXaasr21is_move_constructibleIT_EE5valuesr18is_move_assignableIS3_EE5valueEvE4typeERS3_S6_, symObjAddr: 0x7300, symBinAddr: 0x100007DE0, symSize: 0x40 }
  - { offsetInCU: 0xF33E, offset: 0xF33E, size: 0x8, addend: 0x0, symName: __ZNSt3__14moveB8ue170006INS_16reverse_iteratorIPiEES3_EET0_T_S5_S4_, symObjAddr: 0x7340, symBinAddr: 0x100007E20, symSize: 0x80 }
  - { offsetInCU: 0xF398, offset: 0xF398, size: 0x8, addend: 0x0, symName: __ZNSt3__16__moveB8ue170006INS_17_ClassicAlgPolicyENS_16reverse_iteratorIPiEES4_S4_EENS_4pairIT0_T2_EES6_T1_S7_, symObjAddr: 0x73C0, symBinAddr: 0x100007EA0, symSize: 0x90 }
  - { offsetInCU: 0xF404, offset: 0xF404, size: 0x8, addend: 0x0, symName: __ZNSt3__123__dispatch_copy_or_moveB8ue170006INS_17_ClassicAlgPolicyENS_11__move_loopIS1_EENS_14__move_trivialENS_16reverse_iteratorIPiEES7_S7_EENS_4pairIT2_T4_EES9_T3_SA_, symObjAddr: 0x7450, symBinAddr: 0x100007F30, symSize: 0x90 }
  - { offsetInCU: 0xF482, offset: 0xF482, size: 0x8, addend: 0x0, symName: __ZNSt3__121__unwrap_and_dispatchB8ue170006INS_10__overloadINS_11__move_loopINS_17_ClassicAlgPolicyEEENS_14__move_trivialEEENS_16reverse_iteratorIPiEES9_S9_Li0EEENS_4pairIT0_T2_EESB_T1_SC_, symObjAddr: 0x74E0, symBinAddr: 0x100007FC0, symSize: 0x210 }
  - { offsetInCU: 0xF511, offset: 0xF511, size: 0x8, addend: 0x0, symName: __ZNSt3__114__unwrap_rangeB8ue170006INS_16reverse_iteratorIPiEES3_EENS_4pairIT0_S5_EET_S7_, symObjAddr: 0x76F0, symBinAddr: 0x1000081D0, symSize: 0x90 }
  - { offsetInCU: 0xF683, offset: 0xF683, size: 0x8, addend: 0x0, symName: __ZNSt3__113__unwrap_iterB8ue170006INS_16reverse_iteratorIPiEENS_18__unwrap_iter_implIS3_Lb0EEELi0EEEDTclsrT0_8__unwrapclsr3stdE7declvalIT_EEEES7_, symObjAddr: 0x7820, symBinAddr: 0x100008300, symSize: 0x40 }
  - { offsetInCU: 0xF6C7, offset: 0xF6C7, size: 0x8, addend: 0x0, symName: __ZNSt3__19make_pairB8ue170006INS_16reverse_iteratorIPiEES3_EENS_4pairINS_18__unwrap_ref_decayIT_E4typeENS5_IT0_E4typeEEEOS6_OS9_, symObjAddr: 0x7860, symBinAddr: 0x100008340, symSize: 0x30 }
  - { offsetInCU: 0xF716, offset: 0xF716, size: 0x8, addend: 0x0, symName: __ZNSt3__114__rewrap_rangeB8ue170006INS_16reverse_iteratorIPiEES3_EET_S4_T0_, symObjAddr: 0x7890, symBinAddr: 0x100008370, symSize: 0x60 }
  - { offsetInCU: 0xF762, offset: 0xF762, size: 0x8, addend: 0x0, symName: __ZNSt3__113__rewrap_iterB8ue170006INS_16reverse_iteratorIPiEES3_NS_18__unwrap_iter_implIS3_Lb0EEEEET_S6_T0_, symObjAddr: 0x78F0, symBinAddr: 0x1000083D0, symSize: 0x70 }
  - { offsetInCU: 0xF7B7, offset: 0xF7B7, size: 0x8, addend: 0x0, symName: __ZNSt3__1neB8ue170006IPiS1_EEbRKNS_16reverse_iteratorIT_EERKNS2_IT0_EE, symObjAddr: 0x7960, symBinAddr: 0x100008440, symSize: 0x40 }
  - { offsetInCU: 0xF86F, offset: 0xF86F, size: 0x8, addend: 0x0, symName: __ZNSt3__19__reverseB8ue170006INS_17_ClassicAlgPolicyENS_11__wrap_iterIPiEES4_EEvT0_T1_, symObjAddr: 0x7CC0, symBinAddr: 0x1000087A0, symSize: 0x40 }
  - { offsetInCU: 0xF8C0, offset: 0xF8C0, size: 0x8, addend: 0x0, symName: __ZNSt3__114__reverse_implB8ue170006INS_17_ClassicAlgPolicyENS_11__wrap_iterIPiEEEEvT0_S5_NS_26random_access_iterator_tagE, symObjAddr: 0x7D00, symBinAddr: 0x1000087E0, symSize: 0x80 }
  - { offsetInCU: 0xF912, offset: 0xF912, size: 0x8, addend: 0x0, symName: __ZNSt3__1ltB8ue170006IPiEEbRKNS_11__wrap_iterIT_EES6_, symObjAddr: 0x7D80, symBinAddr: 0x100008860, symSize: 0x40 }
  - { offsetInCU: 0xF955, offset: 0xF955, size: 0x8, addend: 0x0, symName: __ZNSt3__19iter_swapB8ue170006INS_11__wrap_iterIPiEES3_EEvT_T0_, symObjAddr: 0x7E40, symBinAddr: 0x100008920, symSize: 0x40 }
  - { offsetInCU: 0xF99D, offset: 0xF99D, size: 0x8, addend: 0x0, symName: __ZNSt3__14swapB8ue170006IiEENS_9enable_ifIXaasr21is_move_constructibleIT_EE5valuesr18is_move_assignableIS2_EE5valueEvE4typeERS2_S5_, symObjAddr: 0x7E80, symBinAddr: 0x100008960, symSize: 0x30 }
  - { offsetInCU: 0xF9EE, offset: 0xF9EE, size: 0x8, addend: 0x0, symName: __ZNSt3__130__uninitialized_allocator_copyB8ue170006INS_9allocatorIiEEPiS3_S3_EET2_RT_T0_T1_S4_, symObjAddr: 0x81C0, symBinAddr: 0x100008CA0, symSize: 0x80 }
  - { offsetInCU: 0xFA8B, offset: 0xFA8B, size: 0x8, addend: 0x0, symName: __ZNSt3__114__unwrap_rangeB8ue170006IPiS1_EENS_4pairIT0_S3_EET_S5_, symObjAddr: 0x8240, symBinAddr: 0x100008D20, symSize: 0x50 }
  - { offsetInCU: 0xFAD7, offset: 0xFAD7, size: 0x8, addend: 0x0, symName: __ZNSt3__135__uninitialized_allocator_copy_implB8ue170006INS_9allocatorIiEEiiiLPv0EEEPT2_RT_PT0_S9_S5_, symObjAddr: 0x8290, symBinAddr: 0x100008D70, symSize: 0x30 }
  - { offsetInCU: 0xFB58, offset: 0xFB58, size: 0x8, addend: 0x0, symName: __ZNSt3__113__unwrap_iterB8ue170006IPiNS_18__unwrap_iter_implIS1_Lb1EEELi0EEEDTclsrT0_8__unwrapclsr3stdE7declvalIT_EEEES5_, symObjAddr: 0x82C0, symBinAddr: 0x100008DA0, symSize: 0x20 }
  - { offsetInCU: 0xFB9C, offset: 0xFB9C, size: 0x8, addend: 0x0, symName: __ZNSt3__113__rewrap_iterB8ue170006IPiS1_NS_18__unwrap_iter_implIS1_Lb1EEEEET_S4_T0_, symObjAddr: 0x82E0, symBinAddr: 0x100008DC0, symSize: 0x40 }
  - { offsetInCU: 0xFBF1, offset: 0xFBF1, size: 0x8, addend: 0x0, symName: __ZNSt3__19make_pairB8ue170006IPiS1_EENS_4pairINS_18__unwrap_ref_decayIT_E4typeENS3_IT0_E4typeEEEOS4_OS7_, symObjAddr: 0x8320, symBinAddr: 0x100008E00, symSize: 0x30 }
  - { offsetInCU: 0xFD43, offset: 0xFD43, size: 0x8, addend: 0x0, symName: __ZNSt3__14copyB8ue170006IPiS1_EET0_T_S3_S2_, symObjAddr: 0x83B0, symBinAddr: 0x100008E90, symSize: 0x40 }
  - { offsetInCU: 0xFD9D, offset: 0xFD9D, size: 0x8, addend: 0x0, symName: __ZNSt3__16__copyB8ue170006INS_17_ClassicAlgPolicyEPiS2_S2_EENS_4pairIT0_T2_EES4_T1_S5_, symObjAddr: 0x83F0, symBinAddr: 0x100008ED0, symSize: 0x40 }
  - { offsetInCU: 0xFE09, offset: 0xFE09, size: 0x8, addend: 0x0, symName: __ZNSt3__123__dispatch_copy_or_moveB8ue170006INS_17_ClassicAlgPolicyENS_11__copy_loopIS1_EENS_14__copy_trivialEPiS5_S5_EENS_4pairIT2_T4_EES7_T3_S8_, symObjAddr: 0x8430, symBinAddr: 0x100008F10, symSize: 0x40 }
  - { offsetInCU: 0xFE87, offset: 0xFE87, size: 0x8, addend: 0x0, symName: __ZNSt3__121__unwrap_and_dispatchB8ue170006INS_10__overloadINS_11__copy_loopINS_17_ClassicAlgPolicyEEENS_14__copy_trivialEEEPiS7_S7_Li0EEENS_4pairIT0_T2_EES9_T1_SA_, symObjAddr: 0x8470, symBinAddr: 0x100008F50, symSize: 0xB0 }
  - { offsetInCU: 0xFF5C, offset: 0xFF5C, size: 0x8, addend: 0x0, symName: __ZNSt3__114__rewrap_rangeB8ue170006IPiS1_EET_S2_T0_, symObjAddr: 0x8560, symBinAddr: 0x100009040, symSize: 0x30 }
  - { offsetInCU: 0xFFA8, offset: 0xFFA8, size: 0x8, addend: 0x0, symName: __ZNSt3__119__copy_trivial_implB8ue170006IiiEENS_4pairIPT_PT0_EES3_S3_S5_, symObjAddr: 0x8590, symBinAddr: 0x100009070, symSize: 0x70 }
  - { offsetInCU: 0x10010, offset: 0x10010, size: 0x8, addend: 0x0, symName: __ZNSt3__119__constexpr_memmoveB8ue170006IiiLi0EEEPT_S2_PT0_NS_15__element_countE, symObjAddr: 0x8600, symBinAddr: 0x1000090E0, symSize: 0x50 }
  - { offsetInCU: 0x1007E, offset: 0x1007E, size: 0x8, addend: 0x0, symName: __ZNSt3__19make_pairB8ue170006IRPiS1_EENS_4pairINS_18__unwrap_ref_decayIT_E4typeENS4_IT0_E4typeEEEOS5_OS8_, symObjAddr: 0x8650, symBinAddr: 0x100009130, symSize: 0x30 }
  - { offsetInCU: 0x10120, offset: 0x10120, size: 0x8, addend: 0x0, symName: __ZNSt3__1eqB8ue170006IPiEEbRKNS_11__wrap_iterIT_EES6_, symObjAddr: 0x8780, symBinAddr: 0x100009260, symSize: 0x40 }
  - { offsetInCU: 0x10163, offset: 0x10163, size: 0x8, addend: 0x0, symName: __ZNSt3__122__make_exception_guardB8ue170006INS_6vectorINS_5tupleIJiiiEEENS_9allocatorIS3_EEE16__destroy_vectorEEENS_28__exception_guard_exceptionsIT_EES9_, symObjAddr: 0x8CC0, symBinAddr: 0x1000097A0, symSize: 0x40 }
  - { offsetInCU: 0x10198, offset: 0x10198, size: 0x8, addend: 0x0, symName: __ZNSt3__119__allocate_at_leastB8ue170006INS_9allocatorINS_5tupleIJiiiEEEEEEENS_19__allocation_resultINS_16allocator_traitsIT_E7pointerEEERS7_m, symObjAddr: 0x90A0, symBinAddr: 0x100009B80, symSize: 0x40 }
  - { offsetInCU: 0x101DB, offset: 0x101DB, size: 0x8, addend: 0x0, symName: __ZNSt3__112__to_addressB8ue170006INS_5tupleIJiiiEEEEEPT_S4_, symObjAddr: 0x9380, symBinAddr: 0x100009E60, symSize: 0x10 }
  - { offsetInCU: 0x10210, offset: 0x10210, size: 0x8, addend: 0x0, symName: __ZNSt3__130__uninitialized_allocator_copyB8ue170006INS_9allocatorINS_5tupleIJiiiEEEEEPKS3_S6_PS3_EET2_RT_T0_T1_S8_, symObjAddr: 0x9410, symBinAddr: 0x100009EF0, symSize: 0x80 }
  - { offsetInCU: 0x102AD, offset: 0x102AD, size: 0x8, addend: 0x0, symName: __ZNSt3__114__unwrap_rangeB8ue170006IPKNS_5tupleIJiiiEEES4_EENS_4pairIT0_S6_EET_S8_, symObjAddr: 0x94F0, symBinAddr: 0x100009FD0, symSize: 0x50 }
  - { offsetInCU: 0x102F9, offset: 0x102F9, size: 0x8, addend: 0x0, symName: __ZNSt3__135__uninitialized_allocator_copy_implB8ue170006INS_9allocatorINS_5tupleIJiiiEEEEEPKS3_S6_PS3_EET2_RT_T0_T1_S8_, symObjAddr: 0x9540, symBinAddr: 0x10000A020, symSize: 0x100 }
  - { offsetInCU: 0x10397, offset: 0x10397, size: 0x8, addend: 0x0, symName: __ZNSt3__113__unwrap_iterB8ue170006IPNS_5tupleIJiiiEEENS_18__unwrap_iter_implIS3_Lb1EEELi0EEEDTclsrT0_8__unwrapclsr3stdE7declvalIT_EEEES7_, symObjAddr: 0x9640, symBinAddr: 0x10000A120, symSize: 0x20 }
  - { offsetInCU: 0x103DB, offset: 0x103DB, size: 0x8, addend: 0x0, symName: __ZNSt3__113__rewrap_iterB8ue170006IPNS_5tupleIJiiiEEES3_NS_18__unwrap_iter_implIS3_Lb1EEEEET_S6_T0_, symObjAddr: 0x9660, symBinAddr: 0x10000A140, symSize: 0x40 }
  - { offsetInCU: 0x10430, offset: 0x10430, size: 0x8, addend: 0x0, symName: __ZNSt3__19make_pairB8ue170006IPKNS_5tupleIJiiiEEES4_EENS_4pairINS_18__unwrap_ref_decayIT_E4typeENS6_IT0_E4typeEEEOS7_OSA_, symObjAddr: 0x96A0, symBinAddr: 0x10000A180, symSize: 0x30 }
  - { offsetInCU: 0x1047F, offset: 0x1047F, size: 0x8, addend: 0x0, symName: __ZNSt3__113__unwrap_iterB8ue170006IPKNS_5tupleIJiiiEEENS_18__unwrap_iter_implIS4_Lb1EEELi0EEEDTclsrT0_8__unwrapclsr3stdE7declvalIT_EEEES8_, symObjAddr: 0x96D0, symBinAddr: 0x10000A1B0, symSize: 0x20 }
  - { offsetInCU: 0x105EA, offset: 0x105EA, size: 0x8, addend: 0x0, symName: __ZNSt3__112__to_addressB8ue170006IKNS_5tupleIJiiiEEEEEPT_S5_, symObjAddr: 0x9770, symBinAddr: 0x10000A250, symSize: 0x10 }
  - { offsetInCU: 0x1061F, offset: 0x1061F, size: 0x8, addend: 0x0, symName: __ZNSt3__122__make_exception_guardB8ue170006INS_29_AllocatorDestroyRangeReverseINS_9allocatorINS_5tupleIJiiiEEEEEPS4_EEEENS_28__exception_guard_exceptionsIT_EES9_, symObjAddr: 0x9780, symBinAddr: 0x10000A260, symSize: 0x60 }
  - { offsetInCU: 0x10654, offset: 0x10654, size: 0x8, addend: 0x0, symName: __ZNSt3__119__allocator_destroyB8ue170006INS_9allocatorINS_5tupleIJiiiEEEEENS_16reverse_iteratorIPS3_EES7_EEvRT_T0_T1_, symObjAddr: 0x9A10, symBinAddr: 0x10000A4F0, symSize: 0x70 }
  - { offsetInCU: 0x106B7, offset: 0x106B7, size: 0x8, addend: 0x0, symName: __ZNSt3__1neB8ue170006IPNS_5tupleIJiiiEEES3_EEbRKNS_16reverse_iteratorIT_EERKNS4_IT0_EE, symObjAddr: 0x9AB0, symBinAddr: 0x10000A590, symSize: 0x40 }
  - { offsetInCU: 0x10703, offset: 0x10703, size: 0x8, addend: 0x0, symName: __ZNSt3__112__to_addressB8ue170006INS_16reverse_iteratorIPNS_5tupleIJiiiEEEEEvEEu7__decayIDTclsr19__to_address_helperIT_EE6__callclsr3stdE7declvalIRKS6_EEEEES8_, symObjAddr: 0x9B20, symBinAddr: 0x10000A600, symSize: 0x20 }
  - { offsetInCU: 0x107B5, offset: 0x107B5, size: 0x8, addend: 0x0, symName: __ZNSt3__142__uninitialized_allocator_move_if_noexceptB8ue170006INS_9allocatorINS_4pairIiiEEEENS_16reverse_iteratorIPS3_EES7_S7_EET2_RT_T0_T1_S8_, symObjAddr: 0xA640, symBinAddr: 0x10000B120, symSize: 0x170 }
  - { offsetInCU: 0x10854, offset: 0x10854, size: 0x8, addend: 0x0, symName: __ZNSt3__14swapB8ue170006IPNS_4pairIiiEEEENS_9enable_ifIXaasr21is_move_constructibleIT_EE5valuesr18is_move_assignableIS5_EE5valueEvE4typeERS5_S8_, symObjAddr: 0xA7B0, symBinAddr: 0x10000B290, symSize: 0x40 }
  - { offsetInCU: 0x108A5, offset: 0x108A5, size: 0x8, addend: 0x0, symName: __ZNSt3__122__make_exception_guardB8ue170006INS_29_AllocatorDestroyRangeReverseINS_9allocatorINS_4pairIiiEEEENS_16reverse_iteratorIPS4_EEEEEENS_28__exception_guard_exceptionsIT_EESB_, symObjAddr: 0xA7F0, symBinAddr: 0x10000B2D0, symSize: 0x60 }
  - { offsetInCU: 0x108DA, offset: 0x108DA, size: 0x8, addend: 0x0, symName: __ZNSt3__119__allocator_destroyB8ue170006INS_9allocatorINS_4pairIiiEEEENS_16reverse_iteratorINS5_IPS3_EEEES8_EEvRT_T0_T1_, symObjAddr: 0xAAB0, symBinAddr: 0x10000B590, symSize: 0x70 }
  - { offsetInCU: 0x1093D, offset: 0x1093D, size: 0x8, addend: 0x0, symName: __ZNSt3__1neB8ue170006INS_16reverse_iteratorIPNS_4pairIiiEEEES5_EEbRKNS1_IT_EERKNS1_IT0_EE, symObjAddr: 0xAB50, symBinAddr: 0x10000B630, symSize: 0x50 }
  - { offsetInCU: 0x10989, offset: 0x10989, size: 0x8, addend: 0x0, symName: __ZNSt3__112__to_addressB8ue170006INS_16reverse_iteratorINS1_IPNS_4pairIiiEEEEEEvEEu7__decayIDTclsr19__to_address_helperIT_EE6__callclsr3stdE7declvalIRKS7_EEEEES9_, symObjAddr: 0xABA0, symBinAddr: 0x10000B680, symSize: 0x20 }
  - { offsetInCU: 0x109E8, offset: 0x109E8, size: 0x8, addend: 0x0, symName: __ZNSt3__116__pad_and_outputB8ue170006IcNS_11char_traitsIcEEEENS_19ostreambuf_iteratorIT_T0_EES6_PKS4_S8_S8_RNS_8ios_baseES4_, symObjAddr: 0xB100, symBinAddr: 0x10000BBE0, symSize: 0x220 }
  - { offsetInCU: 0x10AB8, offset: 0x10AB8, size: 0x8, addend: 0x0, symName: __ZNSt3__112__to_addressB8ue170006IcEEPT_S2_, symObjAddr: 0xB620, symBinAddr: 0x10000C100, symSize: 0x10 }
  - { offsetInCU: 0x10B20, offset: 0x10B20, size: 0x8, addend: 0x0, symName: __ZNSt3__19use_facetB8ue170006INS_5ctypeIcEEEERKT_RKNS_6localeE, symObjAddr: 0xB8B0, symBinAddr: 0x10000C390, symSize: 0x30 }
  - { offsetInCU: 0x10FED, offset: 0x10FED, size: 0x8, addend: 0x0, symName: __ZNSt3__118__constexpr_strlenB8ue170006EPKc, symObjAddr: 0xB940, symBinAddr: 0x10000C420, symSize: 0x1B }
  - { offsetInCU: 0x116A2, offset: 0x116A2, size: 0x8, addend: 0x0, symName: __ZSt28__throw_bad_array_new_lengthB8ue170006v, symObjAddr: 0x1C20, symBinAddr: 0x100002700, symSize: 0x40 }
  - { offsetInCU: 0x120E7, offset: 0x120E7, size: 0x8, addend: 0x0, symName: __ZNSt3__16vectorIiNS_9allocatorIiEEE26__swap_out_circular_bufferERNS_14__split_bufferIiRS2_EE, symObjAddr: 0x6E80, symBinAddr: 0x100007960, symSize: 0x120 }
  - { offsetInCU: 0x12332, offset: 0x12332, size: 0x8, addend: 0x0, symName: __ZNSt3__16vectorINS_4pairIiiEENS_9allocatorIS2_EEE26__swap_out_circular_bufferERNS_14__split_bufferIS2_RS4_EE, symObjAddr: 0xA300, symBinAddr: 0x10000ADE0, symSize: 0x120 }
  - { offsetInCU: 0x14887, offset: 0x14887, size: 0x8, addend: 0x0, symName: _main, symObjAddr: 0x0, symBinAddr: 0x100000AE0, symSize: 0x910 }
  - { offsetInCU: 0x149C7, offset: 0x149C7, size: 0x8, addend: 0x0, symName: __ZNSt3__16vectorINS0_INS_4pairIiiEENS_9allocatorIS2_EEEENS3_IS5_EEEC1Em, symObjAddr: 0x910, symBinAddr: 0x1000013F0, symSize: 0x30 }
  - { offsetInCU: 0x14A02, offset: 0x14A02, size: 0x8, addend: 0x0, symName: __ZNSt3__16vectorINS_5tupleIJiiiEEENS_9allocatorIS2_EEEC1B8ue170006ESt16initializer_listIS2_E, symObjAddr: 0x990, symBinAddr: 0x100001470, symSize: 0x30 }
  - { offsetInCU: 0x14A3D, offset: 0x14A3D, size: 0x8, addend: 0x0, symName: __ZNSt3__16vectorINS_5tupleIJiiiEEENS_9allocatorIS2_EEE5beginB8ue170006Ev, symObjAddr: 0x9C0, symBinAddr: 0x1000014A0, symSize: 0x30 }
  - { offsetInCU: 0x14A65, offset: 0x14A65, size: 0x8, addend: 0x0, symName: __ZNSt3__16vectorINS_5tupleIJiiiEEENS_9allocatorIS2_EEE3endB8ue170006Ev, symObjAddr: 0x9F0, symBinAddr: 0x1000014D0, symSize: 0x30 }
  - { offsetInCU: 0x14A8D, offset: 0x14A8D, size: 0x8, addend: 0x0, symName: __ZNKSt3__111__wrap_iterIPNS_5tupleIJiiiEEEEdeB8ue170006Ev, symObjAddr: 0xA50, symBinAddr: 0x100001530, symSize: 0x20 }
  - { offsetInCU: 0x14AB3, offset: 0x14AB3, size: 0x8, addend: 0x0, symName: __ZNSt3__16vectorINS0_INS_4pairIiiEENS_9allocatorIS2_EEEENS3_IS5_EEEixB8ue170006Em, symObjAddr: 0xAD0, symBinAddr: 0x1000015B0, symSize: 0x20 }
  - { offsetInCU: 0x14AEA, offset: 0x14AEA, size: 0x8, addend: 0x0, symName: __ZNSt3__16vectorINS_4pairIiiEENS_9allocatorIS2_EEE9push_backB8ue170006EOS2_, symObjAddr: 0xAF0, symBinAddr: 0x1000015D0, symSize: 0x60 }
  - { offsetInCU: 0x14B21, offset: 0x14B21, size: 0x8, addend: 0x0, symName: __ZNSt3__111__wrap_iterIPNS_5tupleIJiiiEEEEppB8ue170006Ev, symObjAddr: 0xB80, symBinAddr: 0x100001660, symSize: 0x20 }
  - { offsetInCU: 0x14B47, offset: 0x14B47, size: 0x8, addend: 0x0, symName: __ZN4ssspC1ERNSt3__16vectorINS1_INS0_4pairIiiEENS0_9allocatorIS3_EEEENS4_IS6_EEEE, symObjAddr: 0xBA0, symBinAddr: 0x100001680, symSize: 0x30 }
  - { offsetInCU: 0x14B7F, offset: 0x14B7F, size: 0x8, addend: 0x0, symName: __ZN4sssp12shortestPathEii, symObjAddr: 0xBD0, symBinAddr: 0x1000016B0, symSize: 0x1A0 }
  - { offsetInCU: 0x14BEC, offset: 0x14BEC, size: 0x8, addend: 0x0, symName: __ZNSt3__16vectorIiNS_9allocatorIiEEE5beginB8ue170006Ev, symObjAddr: 0xDF0, symBinAddr: 0x1000018D0, symSize: 0x30 }
  - { offsetInCU: 0x14C14, offset: 0x14C14, size: 0x8, addend: 0x0, symName: __ZNSt3__16vectorIiNS_9allocatorIiEEE3endB8ue170006Ev, symObjAddr: 0xE20, symBinAddr: 0x100001900, symSize: 0x30 }
  - { offsetInCU: 0x14C3C, offset: 0x14C3C, size: 0x8, addend: 0x0, symName: __ZNKSt3__111__wrap_iterIPiEdeB8ue170006Ev, symObjAddr: 0xE80, symBinAddr: 0x100001960, symSize: 0x20 }
  - { offsetInCU: 0x14C62, offset: 0x14C62, size: 0x8, addend: 0x0, symName: __ZNSt3__111__wrap_iterIPiEppB8ue170006Ev, symObjAddr: 0xEA0, symBinAddr: 0x100001980, symSize: 0x20 }
  - { offsetInCU: 0x14C88, offset: 0x14C88, size: 0x8, addend: 0x0, symName: __ZNSt3__113basic_ostreamIcNS_11char_traitsIcEEElsB8ue170006EPFRS3_S4_E, symObjAddr: 0xEC0, symBinAddr: 0x1000019A0, symSize: 0x20 }
  - { offsetInCU: 0x14CBC, offset: 0x14CBC, size: 0x8, addend: 0x0, symName: __ZNSt3__14pairIiNS_6vectorIiNS_9allocatorIiEEEEED1Ev, symObjAddr: 0xF30, symBinAddr: 0x100001A10, symSize: 0x20 }
  - { offsetInCU: 0x14CE8, offset: 0x14CE8, size: 0x8, addend: 0x0, symName: __ZN4ssspD1Ev, symObjAddr: 0xF50, symBinAddr: 0x100001A30, symSize: 0x20 }
  - { offsetInCU: 0x14D14, offset: 0x14D14, size: 0x8, addend: 0x0, symName: __ZNSt3__16vectorINS_5tupleIJiiiEEENS_9allocatorIS2_EEED1B8ue170006Ev, symObjAddr: 0xF70, symBinAddr: 0x100001A50, symSize: 0x20 }
  - { offsetInCU: 0x14D3E, offset: 0x14D3E, size: 0x8, addend: 0x0, symName: __ZNSt3__16vectorINS0_INS_4pairIiiEENS_9allocatorIS2_EEEENS3_IS5_EEED1B8ue170006Ev, symObjAddr: 0xF90, symBinAddr: 0x100001A70, symSize: 0x20 }
  - { offsetInCU: 0x14D6D, offset: 0x14D6D, size: 0x8, addend: 0x0, symName: __ZNSt3__15tupleIJiiiEEC1B8ue170006IJiiiELi0EEEDpOT_, symObjAddr: 0xFB0, symBinAddr: 0x100001A90, symSize: 0x40 }
  - { offsetInCU: 0x14DDF, offset: 0x14DDF, size: 0x8, addend: 0x0, symName: __ZNSt3__15tupleIJiiiEEC2B8ue170006IJiiiELi0EEEDpOT_, symObjAddr: 0xFF0, symBinAddr: 0x100001AD0, symSize: 0x40 }
  - { offsetInCU: 0x14E51, offset: 0x14E51, size: 0x8, addend: 0x0, symName: __ZNSt3__112__tuple_implINS_15__tuple_indicesIJLm0ELm1ELm2EEEEJiiiEEC1B8ue170006IJLm0ELm1ELm2EEJiiiEJEJEJiiiEEENS1_IJXspT_EEEENS_13__tuple_typesIJDpT0_EEENS1_IJXspT1_EEEENS6_IJDpT2_EEEDpOT3_, symObjAddr: 0x1030, symBinAddr: 0x100001B10, symSize: 0x40 }
  - { offsetInCU: 0x14F20, offset: 0x14F20, size: 0x8, addend: 0x0, symName: __ZNSt3__112__tuple_implINS_15__tuple_indicesIJLm0ELm1ELm2EEEEJiiiEEC2B8ue170006IJLm0ELm1ELm2EEJiiiEJEJEJiiiEEENS1_IJXspT_EEEENS_13__tuple_typesIJDpT0_EEENS1_IJXspT1_EEEENS6_IJDpT2_EEEDpOT3_, symObjAddr: 0x1070, symBinAddr: 0x100001B50, symSize: 0x60 }
  - { offsetInCU: 0x14FEF, offset: 0x14FEF, size: 0x8, addend: 0x0, symName: __ZNSt3__112__tuple_leafILm0EiLb0EEC2B8ue170006IivEEOT_, symObjAddr: 0x10D0, symBinAddr: 0x100001BB0, symSize: 0x20 }
  - { offsetInCU: 0x15032, offset: 0x15032, size: 0x8, addend: 0x0, symName: __ZNSt3__112__tuple_leafILm1EiLb0EEC2B8ue170006IivEEOT_, symObjAddr: 0x10F0, symBinAddr: 0x100001BD0, symSize: 0x20 }
  - { offsetInCU: 0x15075, offset: 0x15075, size: 0x8, addend: 0x0, symName: __ZNSt3__112__tuple_leafILm2EiLb0EEC2B8ue170006IivEEOT_, symObjAddr: 0x1110, symBinAddr: 0x100001BF0, symSize: 0x20 }
  - { offsetInCU: 0x150B8, offset: 0x150B8, size: 0x8, addend: 0x0, symName: __ZNKSt3__111__wrap_iterIPNS_5tupleIJiiiEEEE4baseB8ue170006Ev, symObjAddr: 0x1170, symBinAddr: 0x100001C50, symSize: 0x20 }
  - { offsetInCU: 0x150DE, offset: 0x150DE, size: 0x8, addend: 0x0, symName: __ZNSt3__112__tuple_leafILm0EiLb0EE3getB8ue170006Ev, symObjAddr: 0x1190, symBinAddr: 0x100001C70, symSize: 0x10 }
  - { offsetInCU: 0x15104, offset: 0x15104, size: 0x8, addend: 0x0, symName: __ZNSt3__112__tuple_leafILm1EiLb0EE3getB8ue170006Ev, symObjAddr: 0x11A0, symBinAddr: 0x100001C80, symSize: 0x10 }
  - { offsetInCU: 0x1512A, offset: 0x1512A, size: 0x8, addend: 0x0, symName: __ZNSt3__112__tuple_leafILm2EiLb0EE3getB8ue170006Ev, symObjAddr: 0x11B0, symBinAddr: 0x100001C90, symSize: 0x10 }
  - { offsetInCU: 0x15150, offset: 0x15150, size: 0x8, addend: 0x0, symName: __ZNSt3__14pairIiiEC1B8ue170006IRiS3_LPv0EEEOT_OT0_, symObjAddr: 0x11C0, symBinAddr: 0x100001CA0, symSize: 0x30 }
  - { offsetInCU: 0x151AE, offset: 0x151AE, size: 0x8, addend: 0x0, symName: __ZNSt3__14pairIiiEC2B8ue170006IRiS3_LPv0EEEOT_OT0_, symObjAddr: 0x11F0, symBinAddr: 0x100001CD0, symSize: 0x30 }
  - { offsetInCU: 0x1520C, offset: 0x1520C, size: 0x8, addend: 0x0, symName: __ZN4ssspC2ERNSt3__16vectorINS1_INS0_4pairIiiEENS0_9allocatorIS3_EEEENS4_IS6_EEEE, symObjAddr: 0x1220, symBinAddr: 0x100001D00, symSize: 0xC0 }
  - { offsetInCU: 0x15244, offset: 0x15244, size: 0x8, addend: 0x0, symName: __ZNSt3__16vectorINS0_INS_4pairIiiEENS_9allocatorIS2_EEEENS3_IS5_EEEC1ERKS7_, symObjAddr: 0x12E0, symBinAddr: 0x100001DC0, symSize: 0x30 }
  - { offsetInCU: 0x1527F, offset: 0x1527F, size: 0x8, addend: 0x0, symName: __ZNKSt3__16vectorINS0_INS_4pairIiiEENS_9allocatorIS2_EEEENS3_IS5_EEE4sizeB8ue170006Ev, symObjAddr: 0x1310, symBinAddr: 0x100001DF0, symSize: 0x30 }
  - { offsetInCU: 0x152A5, offset: 0x152A5, size: 0x8, addend: 0x0, symName: __ZNSt3__16vectorIiNS_9allocatorIiEEEC1EmRKi, symObjAddr: 0x1340, symBinAddr: 0x100001E20, symSize: 0x30 }
  - { offsetInCU: 0x152EF, offset: 0x152EF, size: 0x8, addend: 0x0, symName: __ZNSt3__16vectorIiNS_9allocatorIiEEED1B8ue170006Ev, symObjAddr: 0x1370, symBinAddr: 0x100001E50, symSize: 0x20 }
  - { offsetInCU: 0x15319, offset: 0x15319, size: 0x8, addend: 0x0, symName: __ZNSt3__16vectorINS0_INS_4pairIiiEENS_9allocatorIS2_EEEENS3_IS5_EEEC2ERKS7_, symObjAddr: 0x1390, symBinAddr: 0x100001E70, symSize: 0xA0 }
  - { offsetInCU: 0x1535E, offset: 0x1535E, size: 0x8, addend: 0x0, symName: __ZNSt3__116allocator_traitsINS_9allocatorINS_6vectorINS_4pairIiiEENS1_IS4_EEEEEEE37select_on_container_copy_constructionB8ue170006IS7_vvEES7_RKS7_, symObjAddr: 0x1430, symBinAddr: 0x100001F10, symSize: 0x10 }
  - { offsetInCU: 0x1538D, offset: 0x1538D, size: 0x8, addend: 0x0, symName: __ZNKSt3__16vectorINS0_INS_4pairIiiEENS_9allocatorIS2_EEEENS3_IS5_EEE7__allocB8ue170006Ev, symObjAddr: 0x1440, symBinAddr: 0x100001F20, symSize: 0x20 }
  - { offsetInCU: 0x153BD, offset: 0x153BD, size: 0x8, addend: 0x0, symName: __ZNSt3__117__compressed_pairIPNS_6vectorINS_4pairIiiEENS_9allocatorIS3_EEEENS4_IS6_EEEC1B8ue170006IDnS8_EEOT_OT0_, symObjAddr: 0x1460, symBinAddr: 0x100001F40, symSize: 0x30 }
  - { offsetInCU: 0x15415, offset: 0x15415, size: 0x8, addend: 0x0, symName: __ZNSt3__16vectorINS0_INS_4pairIiiEENS_9allocatorIS2_EEEENS3_IS5_EEE16__init_with_sizeB8ue170006IPS5_S9_EEvT_T0_m, symObjAddr: 0x1490, symBinAddr: 0x100001F70, symSize: 0xB0 }
  - { offsetInCU: 0x15489, offset: 0x15489, size: 0x8, addend: 0x0, symName: __ZNKSt3__117__compressed_pairIPNS_6vectorINS_4pairIiiEENS_9allocatorIS3_EEEENS4_IS6_EEE6secondB8ue170006Ev, symObjAddr: 0x1540, symBinAddr: 0x100002020, symSize: 0x20 }
  - { offsetInCU: 0x154AF, offset: 0x154AF, size: 0x8, addend: 0x0, symName: __ZNKSt3__122__compressed_pair_elemINS_9allocatorINS_6vectorINS_4pairIiiEENS1_IS4_EEEEEELi1ELb1EE5__getB8ue170006Ev, symObjAddr: 0x1560, symBinAddr: 0x100002040, symSize: 0x10 }
  - { offsetInCU: 0x154D5, offset: 0x154D5, size: 0x8, addend: 0x0, symName: __ZNSt3__117__compressed_pairIPNS_6vectorINS_4pairIiiEENS_9allocatorIS3_EEEENS4_IS6_EEEC2B8ue170006IDnS8_EEOT_OT0_, symObjAddr: 0x1570, symBinAddr: 0x100002050, symSize: 0x40 }
  - { offsetInCU: 0x1552D, offset: 0x1552D, size: 0x8, addend: 0x0, symName: __ZNSt3__122__compressed_pair_elemIPNS_6vectorINS_4pairIiiEENS_9allocatorIS3_EEEELi0ELb0EEC2B8ue170006IDnvEEOT_, symObjAddr: 0x15B0, symBinAddr: 0x100002090, symSize: 0x20 }
  - { offsetInCU: 0x1556F, offset: 0x1556F, size: 0x8, addend: 0x0, symName: __ZNSt3__122__compressed_pair_elemINS_9allocatorINS_6vectorINS_4pairIiiEENS1_IS4_EEEEEELi1ELb1EEC2B8ue170006IS7_vEEOT_, symObjAddr: 0x15D0, symBinAddr: 0x1000020B0, symSize: 0x10 }
  - { offsetInCU: 0x155B1, offset: 0x155B1, size: 0x8, addend: 0x0, symName: __ZNSt3__16vectorINS0_INS_4pairIiiEENS_9allocatorIS2_EEEENS3_IS5_EEE16__destroy_vectorC1B8ue170006ERS7_, symObjAddr: 0x1620, symBinAddr: 0x100002100, symSize: 0x30 }
  - { offsetInCU: 0x155EA, offset: 0x155EA, size: 0x8, addend: 0x0, symName: __ZNSt3__16vectorINS0_INS_4pairIiiEENS_9allocatorIS2_EEEENS3_IS5_EEE11__vallocateB8ue170006Em, symObjAddr: 0x1650, symBinAddr: 0x100002130, symSize: 0xA0 }
  - { offsetInCU: 0x1562E, offset: 0x1562E, size: 0x8, addend: 0x0, symName: __ZNSt3__16vectorINS0_INS_4pairIiiEENS_9allocatorIS2_EEEENS3_IS5_EEE18__construct_at_endIPS5_S9_EEvT_T0_m, symObjAddr: 0x16F0, symBinAddr: 0x1000021D0, symSize: 0x90 }
  - { offsetInCU: 0x156A4, offset: 0x156A4, size: 0x8, addend: 0x0, symName: __ZNSt3__128__exception_guard_exceptionsINS_6vectorINS1_INS_4pairIiiEENS_9allocatorIS3_EEEENS4_IS6_EEE16__destroy_vectorEE10__completeB8ue170006Ev, symObjAddr: 0x1780, symBinAddr: 0x100002260, symSize: 0x20 }
  - { offsetInCU: 0x156CA, offset: 0x156CA, size: 0x8, addend: 0x0, symName: __ZNSt3__128__exception_guard_exceptionsINS_6vectorINS1_INS_4pairIiiEENS_9allocatorIS3_EEEENS4_IS6_EEE16__destroy_vectorEED1B8ue170006Ev, symObjAddr: 0x17A0, symBinAddr: 0x100002280, symSize: 0x20 }
  - { offsetInCU: 0x156F4, offset: 0x156F4, size: 0x8, addend: 0x0, symName: __ZNSt3__128__exception_guard_exceptionsINS_6vectorINS1_INS_4pairIiiEENS_9allocatorIS3_EEEENS4_IS6_EEE16__destroy_vectorEEC1B8ue170006ES9_, symObjAddr: 0x17C0, symBinAddr: 0x1000022A0, symSize: 0x30 }
  - { offsetInCU: 0x1572C, offset: 0x1572C, size: 0x8, addend: 0x0, symName: __ZNSt3__128__exception_guard_exceptionsINS_6vectorINS1_INS_4pairIiiEENS_9allocatorIS3_EEEENS4_IS6_EEE16__destroy_vectorEEC2B8ue170006ES9_, symObjAddr: 0x17F0, symBinAddr: 0x1000022D0, symSize: 0x20 }
  - { offsetInCU: 0x15764, offset: 0x15764, size: 0x8, addend: 0x0, symName: __ZNSt3__16vectorINS0_INS_4pairIiiEENS_9allocatorIS2_EEEENS3_IS5_EEE16__destroy_vectorC2B8ue170006ERS7_, symObjAddr: 0x1810, symBinAddr: 0x1000022F0, symSize: 0x20 }
  - { offsetInCU: 0x1579D, offset: 0x1579D, size: 0x8, addend: 0x0, symName: __ZNKSt3__16vectorINS0_INS_4pairIiiEENS_9allocatorIS2_EEEENS3_IS5_EEE8max_sizeEv, symObjAddr: 0x1830, symBinAddr: 0x100002310, symSize: 0x60 }
  - { offsetInCU: 0x157C5, offset: 0x157C5, size: 0x8, addend: 0x0, symName: __ZNKSt3__16vectorINS0_INS_4pairIiiEENS_9allocatorIS2_EEEENS3_IS5_EEE20__throw_length_errorB8ue170006Ev, symObjAddr: 0x1890, symBinAddr: 0x100002370, symSize: 0x20 }
  - { offsetInCU: 0x157EB, offset: 0x157EB, size: 0x8, addend: 0x0, symName: __ZNSt3__16vectorINS0_INS_4pairIiiEENS_9allocatorIS2_EEEENS3_IS5_EEE7__allocB8ue170006Ev, symObjAddr: 0x18F0, symBinAddr: 0x1000023D0, symSize: 0x20 }
  - { offsetInCU: 0x15811, offset: 0x15811, size: 0x8, addend: 0x0, symName: __ZNSt3__16vectorINS0_INS_4pairIiiEENS_9allocatorIS2_EEEENS3_IS5_EEE9__end_capB8ue170006Ev, symObjAddr: 0x1910, symBinAddr: 0x1000023F0, symSize: 0x20 }
  - { offsetInCU: 0x15837, offset: 0x15837, size: 0x8, addend: 0x0, symName: __ZNKSt3__16vectorINS0_INS_4pairIiiEENS_9allocatorIS2_EEEENS3_IS5_EEE14__annotate_newB8ue170006Em, symObjAddr: 0x1930, symBinAddr: 0x100002410, symSize: 0xA0 }
  - { offsetInCU: 0x1586C, offset: 0x1586C, size: 0x8, addend: 0x0, symName: __ZNSt3__116allocator_traitsINS_9allocatorINS_6vectorINS_4pairIiiEENS1_IS4_EEEEEEE8max_sizeB8ue170006IS7_vEEmRKS7_, symObjAddr: 0x1A00, symBinAddr: 0x1000024E0, symSize: 0x20 }
  - { offsetInCU: 0x1589A, offset: 0x1589A, size: 0x8, addend: 0x0, symName: __ZNSt3__114numeric_limitsIlE3maxB8ue170006Ev, symObjAddr: 0x1A20, symBinAddr: 0x100002500, symSize: 0x10 }
  - { offsetInCU: 0x158B8, offset: 0x158B8, size: 0x8, addend: 0x0, symName: __ZNKSt3__16__lessIvvEclB8ue170006ImmEEbRKT_RKT0_, symObjAddr: 0x1A90, symBinAddr: 0x100002570, symSize: 0x30 }
  - { offsetInCU: 0x1590C, offset: 0x1590C, size: 0x8, addend: 0x0, symName: __ZNKSt3__19allocatorINS_6vectorINS_4pairIiiEENS0_IS3_EEEEE8max_sizeB8ue170006Ev, symObjAddr: 0x1AC0, symBinAddr: 0x1000025A0, symSize: 0x20 }
  - { offsetInCU: 0x15932, offset: 0x15932, size: 0x8, addend: 0x0, symName: __ZNSt3__123__libcpp_numeric_limitsIlLb1EE3maxB8ue170006Ev, symObjAddr: 0x1AE0, symBinAddr: 0x1000025C0, symSize: 0x10 }
  - { offsetInCU: 0x15946, offset: 0x15946, size: 0x8, addend: 0x0, symName: __ZNSt12length_errorC1B8ue170006EPKc, symObjAddr: 0x1B60, symBinAddr: 0x100002640, symSize: 0x30 }
  - { offsetInCU: 0x1597E, offset: 0x1597E, size: 0x8, addend: 0x0, symName: __ZNSt12length_errorC2B8ue170006EPKc, symObjAddr: 0x1B90, symBinAddr: 0x100002670, symSize: 0x40 }
  - { offsetInCU: 0x159B6, offset: 0x159B6, size: 0x8, addend: 0x0, symName: __ZNSt3__19allocatorINS_6vectorINS_4pairIiiEENS0_IS3_EEEEE8allocateB8ue170006Em, symObjAddr: 0x1BD0, symBinAddr: 0x1000026B0, symSize: 0x50 }
  - { offsetInCU: 0x159EA, offset: 0x159EA, size: 0x8, addend: 0x0, symName: __ZNSt3__117__compressed_pairIPNS_6vectorINS_4pairIiiEENS_9allocatorIS3_EEEENS4_IS6_EEE6secondB8ue170006Ev, symObjAddr: 0x1D30, symBinAddr: 0x100002810, symSize: 0x20 }
  - { offsetInCU: 0x15A10, offset: 0x15A10, size: 0x8, addend: 0x0, symName: __ZNSt3__122__compressed_pair_elemINS_9allocatorINS_6vectorINS_4pairIiiEENS1_IS4_EEEEEELi1ELb1EE5__getB8ue170006Ev, symObjAddr: 0x1D50, symBinAddr: 0x100002830, symSize: 0x10 }
  - { offsetInCU: 0x15A36, offset: 0x15A36, size: 0x8, addend: 0x0, symName: __ZNSt3__117__compressed_pairIPNS_6vectorINS_4pairIiiEENS_9allocatorIS3_EEEENS4_IS6_EEE5firstB8ue170006Ev, symObjAddr: 0x1D60, symBinAddr: 0x100002840, symSize: 0x20 }
  - { offsetInCU: 0x15A5C, offset: 0x15A5C, size: 0x8, addend: 0x0, symName: __ZNSt3__122__compressed_pair_elemIPNS_6vectorINS_4pairIiiEENS_9allocatorIS3_EEEELi0ELb0EE5__getB8ue170006Ev, symObjAddr: 0x1D80, symBinAddr: 0x100002860, symSize: 0x10 }
  - { offsetInCU: 0x15A82, offset: 0x15A82, size: 0x8, addend: 0x0, symName: __ZNKSt3__16vectorINS0_INS_4pairIiiEENS_9allocatorIS2_EEEENS3_IS5_EEE31__annotate_contiguous_containerB8ue170006EPKvS9_S9_S9_, symObjAddr: 0x1D90, symBinAddr: 0x100002870, symSize: 0x20 }
  - { offsetInCU: 0x15AD4, offset: 0x15AD4, size: 0x8, addend: 0x0, symName: __ZNKSt3__16vectorINS0_INS_4pairIiiEENS_9allocatorIS2_EEEENS3_IS5_EEE4dataB8ue170006Ev, symObjAddr: 0x1DB0, symBinAddr: 0x100002890, symSize: 0x20 }
  - { offsetInCU: 0x15AFA, offset: 0x15AFA, size: 0x8, addend: 0x0, symName: __ZNKSt3__16vectorINS0_INS_4pairIiiEENS_9allocatorIS2_EEEENS3_IS5_EEE8capacityB8ue170006Ev, symObjAddr: 0x1DD0, symBinAddr: 0x1000028B0, symSize: 0x40 }
  - { offsetInCU: 0x15B20, offset: 0x15B20, size: 0x8, addend: 0x0, symName: __ZNKSt3__16vectorINS0_INS_4pairIiiEENS_9allocatorIS2_EEEENS3_IS5_EEE9__end_capB8ue170006Ev, symObjAddr: 0x1E20, symBinAddr: 0x100002900, symSize: 0x20 }
  - { offsetInCU: 0x15B46, offset: 0x15B46, size: 0x8, addend: 0x0, symName: __ZNKSt3__117__compressed_pairIPNS_6vectorINS_4pairIiiEENS_9allocatorIS3_EEEENS4_IS6_EEE5firstB8ue170006Ev, symObjAddr: 0x1E40, symBinAddr: 0x100002920, symSize: 0x20 }
  - { offsetInCU: 0x15B6C, offset: 0x15B6C, size: 0x8, addend: 0x0, symName: __ZNKSt3__122__compressed_pair_elemIPNS_6vectorINS_4pairIiiEENS_9allocatorIS3_EEEELi0ELb0EE5__getB8ue170006Ev, symObjAddr: 0x1E60, symBinAddr: 0x100002940, symSize: 0x10 }
  - { offsetInCU: 0x15BAB, offset: 0x15BAB, size: 0x8, addend: 0x0, symName: __ZNSt3__16vectorINS0_INS_4pairIiiEENS_9allocatorIS2_EEEENS3_IS5_EEE21_ConstructTransactionC1B8ue170006ERS7_m, symObjAddr: 0x1E70, symBinAddr: 0x100002950, symSize: 0x30 }
  - { offsetInCU: 0x15BF3, offset: 0x15BF3, size: 0x8, addend: 0x0, symName: __ZNSt3__16vectorINS0_INS_4pairIiiEENS_9allocatorIS2_EEEENS3_IS5_EEE21_ConstructTransactionD1B8ue170006Ev, symObjAddr: 0x1F20, symBinAddr: 0x100002A00, symSize: 0x20 }
  - { offsetInCU: 0x15C1D, offset: 0x15C1D, size: 0x8, addend: 0x0, symName: __ZNSt3__16vectorINS0_INS_4pairIiiEENS_9allocatorIS2_EEEENS3_IS5_EEE21_ConstructTransactionC2B8ue170006ERS7_m, symObjAddr: 0x1F40, symBinAddr: 0x100002A20, symSize: 0x40 }
  - { offsetInCU: 0x15C83, offset: 0x15C83, size: 0x8, addend: 0x0, symName: __ZNSt3__14pairIPNS_6vectorINS0_IiiEENS_9allocatorIS2_EEEES6_EC1B8ue170006IS6_S6_LPv0EEEOT_OT0_, symObjAddr: 0x2160, symBinAddr: 0x100002C40, symSize: 0x30 }
  - { offsetInCU: 0x15CE1, offset: 0x15CE1, size: 0x8, addend: 0x0, symName: __ZNSt3__14pairIPNS_6vectorINS0_IiiEENS_9allocatorIS2_EEEES6_EC2B8ue170006IS6_S6_LPv0EEEOT_OT0_, symObjAddr: 0x2190, symBinAddr: 0x100002C70, symSize: 0x30 }
  - { offsetInCU: 0x15D3F, offset: 0x15D3F, size: 0x8, addend: 0x0, symName: __ZNSt3__129_AllocatorDestroyRangeReverseINS_9allocatorINS_6vectorINS_4pairIiiEENS1_IS4_EEEEEEPS6_EC1B8ue170006ERS7_RS8_SB_, symObjAddr: 0x2220, symBinAddr: 0x100002D00, symSize: 0x40 }
  - { offsetInCU: 0x15D96, offset: 0x15D96, size: 0x8, addend: 0x0, symName: __ZNSt3__116allocator_traitsINS_9allocatorINS_6vectorINS_4pairIiiEENS1_IS4_EEEEEEE9constructB8ue170006IS6_JRS6_EvEEvRS7_PT_DpOT0_, symObjAddr: 0x2260, symBinAddr: 0x100002D40, symSize: 0x30 }
  - { offsetInCU: 0x15DED, offset: 0x15DED, size: 0x8, addend: 0x0, symName: __ZNSt3__128__exception_guard_exceptionsINS_29_AllocatorDestroyRangeReverseINS_9allocatorINS_6vectorINS_4pairIiiEENS2_IS5_EEEEEEPS7_EEE10__completeB8ue170006Ev, symObjAddr: 0x2290, symBinAddr: 0x100002D70, symSize: 0x20 }
  - { offsetInCU: 0x15E13, offset: 0x15E13, size: 0x8, addend: 0x0, symName: __ZNSt3__128__exception_guard_exceptionsINS_29_AllocatorDestroyRangeReverseINS_9allocatorINS_6vectorINS_4pairIiiEENS2_IS5_EEEEEEPS7_EEED1B8ue170006Ev, symObjAddr: 0x22B0, symBinAddr: 0x100002D90, symSize: 0x20 }
  - { offsetInCU: 0x15E3D, offset: 0x15E3D, size: 0x8, addend: 0x0, symName: __ZNSt3__128__exception_guard_exceptionsINS_29_AllocatorDestroyRangeReverseINS_9allocatorINS_6vectorINS_4pairIiiEENS2_IS5_EEEEEEPS7_EEEC1B8ue170006ESA_, symObjAddr: 0x22D0, symBinAddr: 0x100002DB0, symSize: 0x40 }
  - { offsetInCU: 0x15E75, offset: 0x15E75, size: 0x8, addend: 0x0, symName: __ZNSt3__128__exception_guard_exceptionsINS_29_AllocatorDestroyRangeReverseINS_9allocatorINS_6vectorINS_4pairIiiEENS2_IS5_EEEEEEPS7_EEEC2B8ue170006ESA_, symObjAddr: 0x2310, symBinAddr: 0x100002DF0, symSize: 0x30 }
  - { offsetInCU: 0x15EAD, offset: 0x15EAD, size: 0x8, addend: 0x0, symName: __ZNSt3__129_AllocatorDestroyRangeReverseINS_9allocatorINS_6vectorINS_4pairIiiEENS1_IS4_EEEEEEPS6_EC2B8ue170006ERS7_RS8_SB_, symObjAddr: 0x2340, symBinAddr: 0x100002E20, symSize: 0x40 }
  - { offsetInCU: 0x15F04, offset: 0x15F04, size: 0x8, addend: 0x0, symName: __ZNSt3__19allocatorINS_6vectorINS_4pairIiiEENS0_IS3_EEEEE9constructB8ue170006IS5_JRS5_EEEvPT_DpOT0_, symObjAddr: 0x2380, symBinAddr: 0x100002E60, symSize: 0x30 }
  - { offsetInCU: 0x15F5A, offset: 0x15F5A, size: 0x8, addend: 0x0, symName: __ZNSt3__16vectorINS_4pairIiiEENS_9allocatorIS2_EEEC1ERKS5_, symObjAddr: 0x23B0, symBinAddr: 0x100002E90, symSize: 0x30 }
  - { offsetInCU: 0x15F95, offset: 0x15F95, size: 0x8, addend: 0x0, symName: __ZNSt3__16vectorINS_4pairIiiEENS_9allocatorIS2_EEEC2ERKS5_, symObjAddr: 0x23E0, symBinAddr: 0x100002EC0, symSize: 0xA0 }
  - { offsetInCU: 0x15FDA, offset: 0x15FDA, size: 0x8, addend: 0x0, symName: __ZNSt3__116allocator_traitsINS_9allocatorINS_4pairIiiEEEEE37select_on_container_copy_constructionB8ue170006IS4_vvEES4_RKS4_, symObjAddr: 0x2480, symBinAddr: 0x100002F60, symSize: 0x10 }
  - { offsetInCU: 0x16009, offset: 0x16009, size: 0x8, addend: 0x0, symName: __ZNKSt3__16vectorINS_4pairIiiEENS_9allocatorIS2_EEE7__allocB8ue170006Ev, symObjAddr: 0x2490, symBinAddr: 0x100002F70, symSize: 0x20 }
  - { offsetInCU: 0x16034, offset: 0x16034, size: 0x8, addend: 0x0, symName: __ZNSt3__117__compressed_pairIPNS_4pairIiiEENS_9allocatorIS2_EEEC1B8ue170006IDnS5_EEOT_OT0_, symObjAddr: 0x24B0, symBinAddr: 0x100002F90, symSize: 0x30 }
  - { offsetInCU: 0x1608C, offset: 0x1608C, size: 0x8, addend: 0x0, symName: __ZNSt3__16vectorINS_4pairIiiEENS_9allocatorIS2_EEE16__init_with_sizeB8ue170006IPS2_S7_EEvT_T0_m, symObjAddr: 0x24E0, symBinAddr: 0x100002FC0, symSize: 0xB0 }
  - { offsetInCU: 0x16100, offset: 0x16100, size: 0x8, addend: 0x0, symName: __ZNKSt3__16vectorINS_4pairIiiEENS_9allocatorIS2_EEE4sizeB8ue170006Ev, symObjAddr: 0x2590, symBinAddr: 0x100003070, symSize: 0x20 }
  - { offsetInCU: 0x16126, offset: 0x16126, size: 0x8, addend: 0x0, symName: __ZNKSt3__117__compressed_pairIPNS_4pairIiiEENS_9allocatorIS2_EEE6secondB8ue170006Ev, symObjAddr: 0x25B0, symBinAddr: 0x100003090, symSize: 0x20 }
  - { offsetInCU: 0x1614C, offset: 0x1614C, size: 0x8, addend: 0x0, symName: __ZNKSt3__122__compressed_pair_elemINS_9allocatorINS_4pairIiiEEEELi1ELb1EE5__getB8ue170006Ev, symObjAddr: 0x25D0, symBinAddr: 0x1000030B0, symSize: 0x10 }
  - { offsetInCU: 0x16172, offset: 0x16172, size: 0x8, addend: 0x0, symName: __ZNSt3__117__compressed_pairIPNS_4pairIiiEENS_9allocatorIS2_EEEC2B8ue170006IDnS5_EEOT_OT0_, symObjAddr: 0x25E0, symBinAddr: 0x1000030C0, symSize: 0x40 }
  - { offsetInCU: 0x161CA, offset: 0x161CA, size: 0x8, addend: 0x0, symName: __ZNSt3__122__compressed_pair_elemIPNS_4pairIiiEELi0ELb0EEC2B8ue170006IDnvEEOT_, symObjAddr: 0x2620, symBinAddr: 0x100003100, symSize: 0x20 }
  - { offsetInCU: 0x1620C, offset: 0x1620C, size: 0x8, addend: 0x0, symName: __ZNSt3__122__compressed_pair_elemINS_9allocatorINS_4pairIiiEEEELi1ELb1EEC2B8ue170006IS4_vEEOT_, symObjAddr: 0x2640, symBinAddr: 0x100003120, symSize: 0x10 }
  - { offsetInCU: 0x1624E, offset: 0x1624E, size: 0x8, addend: 0x0, symName: __ZNSt3__16vectorINS_4pairIiiEENS_9allocatorIS2_EEE16__destroy_vectorC1B8ue170006ERS5_, symObjAddr: 0x2690, symBinAddr: 0x100003170, symSize: 0x30 }
  - { offsetInCU: 0x16287, offset: 0x16287, size: 0x8, addend: 0x0, symName: __ZNSt3__16vectorINS_4pairIiiEENS_9allocatorIS2_EEE11__vallocateB8ue170006Em, symObjAddr: 0x26C0, symBinAddr: 0x1000031A0, symSize: 0xA0 }
  - { offsetInCU: 0x162CB, offset: 0x162CB, size: 0x8, addend: 0x0, symName: __ZNSt3__16vectorINS_4pairIiiEENS_9allocatorIS2_EEE18__construct_at_endIPS2_S7_EEvT_T0_m, symObjAddr: 0x2760, symBinAddr: 0x100003240, symSize: 0x90 }
  - { offsetInCU: 0x16341, offset: 0x16341, size: 0x8, addend: 0x0, symName: __ZNSt3__128__exception_guard_exceptionsINS_6vectorINS_4pairIiiEENS_9allocatorIS3_EEE16__destroy_vectorEE10__completeB8ue170006Ev, symObjAddr: 0x27F0, symBinAddr: 0x1000032D0, symSize: 0x20 }
  - { offsetInCU: 0x16367, offset: 0x16367, size: 0x8, addend: 0x0, symName: __ZNSt3__128__exception_guard_exceptionsINS_6vectorINS_4pairIiiEENS_9allocatorIS3_EEE16__destroy_vectorEED1B8ue170006Ev, symObjAddr: 0x2810, symBinAddr: 0x1000032F0, symSize: 0x20 }
  - { offsetInCU: 0x16391, offset: 0x16391, size: 0x8, addend: 0x0, symName: __ZNSt3__128__exception_guard_exceptionsINS_6vectorINS_4pairIiiEENS_9allocatorIS3_EEE16__destroy_vectorEEC1B8ue170006ES7_, symObjAddr: 0x2830, symBinAddr: 0x100003310, symSize: 0x30 }
  - { offsetInCU: 0x163C9, offset: 0x163C9, size: 0x8, addend: 0x0, symName: __ZNSt3__128__exception_guard_exceptionsINS_6vectorINS_4pairIiiEENS_9allocatorIS3_EEE16__destroy_vectorEEC2B8ue170006ES7_, symObjAddr: 0x2860, symBinAddr: 0x100003340, symSize: 0x20 }
  - { offsetInCU: 0x16401, offset: 0x16401, size: 0x8, addend: 0x0, symName: __ZNSt3__16vectorINS_4pairIiiEENS_9allocatorIS2_EEE16__destroy_vectorC2B8ue170006ERS5_, symObjAddr: 0x2880, symBinAddr: 0x100003360, symSize: 0x20 }
  - { offsetInCU: 0x1643A, offset: 0x1643A, size: 0x8, addend: 0x0, symName: __ZNKSt3__16vectorINS_4pairIiiEENS_9allocatorIS2_EEE8max_sizeEv, symObjAddr: 0x28A0, symBinAddr: 0x100003380, symSize: 0x60 }
  - { offsetInCU: 0x16462, offset: 0x16462, size: 0x8, addend: 0x0, symName: __ZNKSt3__16vectorINS_4pairIiiEENS_9allocatorIS2_EEE20__throw_length_errorB8ue170006Ev, symObjAddr: 0x2900, symBinAddr: 0x1000033E0, symSize: 0x20 }
  - { offsetInCU: 0x16488, offset: 0x16488, size: 0x8, addend: 0x0, symName: __ZNSt3__16vectorINS_4pairIiiEENS_9allocatorIS2_EEE7__allocB8ue170006Ev, symObjAddr: 0x2960, symBinAddr: 0x100003440, symSize: 0x20 }
  - { offsetInCU: 0x164AE, offset: 0x164AE, size: 0x8, addend: 0x0, symName: __ZNSt3__16vectorINS_4pairIiiEENS_9allocatorIS2_EEE9__end_capB8ue170006Ev, symObjAddr: 0x2980, symBinAddr: 0x100003460, symSize: 0x20 }
  - { offsetInCU: 0x164D4, offset: 0x164D4, size: 0x8, addend: 0x0, symName: __ZNKSt3__16vectorINS_4pairIiiEENS_9allocatorIS2_EEE14__annotate_newB8ue170006Em, symObjAddr: 0x29A0, symBinAddr: 0x100003480, symSize: 0xB0 }
  - { offsetInCU: 0x16509, offset: 0x16509, size: 0x8, addend: 0x0, symName: __ZNSt3__116allocator_traitsINS_9allocatorINS_4pairIiiEEEEE8max_sizeB8ue170006IS4_vEEmRKS4_, symObjAddr: 0x2A50, symBinAddr: 0x100003530, symSize: 0x20 }
  - { offsetInCU: 0x16537, offset: 0x16537, size: 0x8, addend: 0x0, symName: __ZNKSt3__19allocatorINS_4pairIiiEEE8max_sizeB8ue170006Ev, symObjAddr: 0x2A70, symBinAddr: 0x100003550, symSize: 0x20 }
  - { offsetInCU: 0x1655D, offset: 0x1655D, size: 0x8, addend: 0x0, symName: __ZNSt3__19allocatorINS_4pairIiiEEE8allocateB8ue170006Em, symObjAddr: 0x2A90, symBinAddr: 0x100003570, symSize: 0x50 }
  - { offsetInCU: 0x16591, offset: 0x16591, size: 0x8, addend: 0x0, symName: __ZNSt3__117__compressed_pairIPNS_4pairIiiEENS_9allocatorIS2_EEE6secondB8ue170006Ev, symObjAddr: 0x2AE0, symBinAddr: 0x1000035C0, symSize: 0x20 }
  - { offsetInCU: 0x165B7, offset: 0x165B7, size: 0x8, addend: 0x0, symName: __ZNSt3__122__compressed_pair_elemINS_9allocatorINS_4pairIiiEEEELi1ELb1EE5__getB8ue170006Ev, symObjAddr: 0x2B00, symBinAddr: 0x1000035E0, symSize: 0x10 }
  - { offsetInCU: 0x165DD, offset: 0x165DD, size: 0x8, addend: 0x0, symName: __ZNSt3__117__compressed_pairIPNS_4pairIiiEENS_9allocatorIS2_EEE5firstB8ue170006Ev, symObjAddr: 0x2B10, symBinAddr: 0x1000035F0, symSize: 0x20 }
  - { offsetInCU: 0x16603, offset: 0x16603, size: 0x8, addend: 0x0, symName: __ZNSt3__122__compressed_pair_elemIPNS_4pairIiiEELi0ELb0EE5__getB8ue170006Ev, symObjAddr: 0x2B30, symBinAddr: 0x100003610, symSize: 0x10 }
  - { offsetInCU: 0x16629, offset: 0x16629, size: 0x8, addend: 0x0, symName: __ZNKSt3__16vectorINS_4pairIiiEENS_9allocatorIS2_EEE31__annotate_contiguous_containerB8ue170006EPKvS7_S7_S7_, symObjAddr: 0x2B40, symBinAddr: 0x100003620, symSize: 0x20 }
  - { offsetInCU: 0x1667B, offset: 0x1667B, size: 0x8, addend: 0x0, symName: __ZNKSt3__16vectorINS_4pairIiiEENS_9allocatorIS2_EEE4dataB8ue170006Ev, symObjAddr: 0x2B60, symBinAddr: 0x100003640, symSize: 0x20 }
  - { offsetInCU: 0x166A1, offset: 0x166A1, size: 0x8, addend: 0x0, symName: __ZNKSt3__16vectorINS_4pairIiiEENS_9allocatorIS2_EEE8capacityB8ue170006Ev, symObjAddr: 0x2B80, symBinAddr: 0x100003660, symSize: 0x30 }
  - { offsetInCU: 0x166C7, offset: 0x166C7, size: 0x8, addend: 0x0, symName: __ZNKSt3__16vectorINS_4pairIiiEENS_9allocatorIS2_EEE9__end_capB8ue170006Ev, symObjAddr: 0x2BC0, symBinAddr: 0x1000036A0, symSize: 0x20 }
  - { offsetInCU: 0x166ED, offset: 0x166ED, size: 0x8, addend: 0x0, symName: __ZNKSt3__117__compressed_pairIPNS_4pairIiiEENS_9allocatorIS2_EEE5firstB8ue170006Ev, symObjAddr: 0x2BE0, symBinAddr: 0x1000036C0, symSize: 0x20 }
  - { offsetInCU: 0x16713, offset: 0x16713, size: 0x8, addend: 0x0, symName: __ZNKSt3__122__compressed_pair_elemIPNS_4pairIiiEELi0ELb0EE5__getB8ue170006Ev, symObjAddr: 0x2C00, symBinAddr: 0x1000036E0, symSize: 0x10 }
  - { offsetInCU: 0x16752, offset: 0x16752, size: 0x8, addend: 0x0, symName: __ZNSt3__16vectorINS_4pairIiiEENS_9allocatorIS2_EEE21_ConstructTransactionC1B8ue170006ERS5_m, symObjAddr: 0x2C10, symBinAddr: 0x1000036F0, symSize: 0x30 }
  - { offsetInCU: 0x1679A, offset: 0x1679A, size: 0x8, addend: 0x0, symName: __ZNSt3__16vectorINS_4pairIiiEENS_9allocatorIS2_EEE21_ConstructTransactionD1B8ue170006Ev, symObjAddr: 0x2CC0, symBinAddr: 0x1000037A0, symSize: 0x20 }
  - { offsetInCU: 0x167C4, offset: 0x167C4, size: 0x8, addend: 0x0, symName: __ZNSt3__16vectorINS_4pairIiiEENS_9allocatorIS2_EEE21_ConstructTransactionC2B8ue170006ERS5_m, symObjAddr: 0x2CE0, symBinAddr: 0x1000037C0, symSize: 0x40 }
  - { offsetInCU: 0x1682A, offset: 0x1682A, size: 0x8, addend: 0x0, symName: __ZNSt3__14pairIPNS0_IiiEES2_EC1B8ue170006IS2_S2_LPv0EEEOT_OT0_, symObjAddr: 0x2F00, symBinAddr: 0x1000039E0, symSize: 0x30 }
  - { offsetInCU: 0x16888, offset: 0x16888, size: 0x8, addend: 0x0, symName: __ZNSt3__14pairIPNS0_IiiEES2_EC2B8ue170006IS2_S2_LPv0EEEOT_OT0_, symObjAddr: 0x2F30, symBinAddr: 0x100003A10, symSize: 0x30 }
  - { offsetInCU: 0x168E6, offset: 0x168E6, size: 0x8, addend: 0x0, symName: __ZNSt3__129_AllocatorDestroyRangeReverseINS_9allocatorINS_4pairIiiEEEEPS3_EC1B8ue170006ERS4_RS5_S8_, symObjAddr: 0x2FC0, symBinAddr: 0x100003AA0, symSize: 0x40 }
  - { offsetInCU: 0x1693D, offset: 0x1693D, size: 0x8, addend: 0x0, symName: __ZNSt3__116allocator_traitsINS_9allocatorINS_4pairIiiEEEEE9constructB8ue170006IS3_JRS3_EvEEvRS4_PT_DpOT0_, symObjAddr: 0x3000, symBinAddr: 0x100003AE0, symSize: 0x30 }
  - { offsetInCU: 0x16994, offset: 0x16994, size: 0x8, addend: 0x0, symName: __ZNSt3__128__exception_guard_exceptionsINS_29_AllocatorDestroyRangeReverseINS_9allocatorINS_4pairIiiEEEEPS4_EEE10__completeB8ue170006Ev, symObjAddr: 0x3030, symBinAddr: 0x100003B10, symSize: 0x20 }
  - { offsetInCU: 0x169BA, offset: 0x169BA, size: 0x8, addend: 0x0, symName: __ZNSt3__128__exception_guard_exceptionsINS_29_AllocatorDestroyRangeReverseINS_9allocatorINS_4pairIiiEEEEPS4_EEED1B8ue170006Ev, symObjAddr: 0x3050, symBinAddr: 0x100003B30, symSize: 0x20 }
  - { offsetInCU: 0x169E4, offset: 0x169E4, size: 0x8, addend: 0x0, symName: __ZNSt3__128__exception_guard_exceptionsINS_29_AllocatorDestroyRangeReverseINS_9allocatorINS_4pairIiiEEEEPS4_EEEC1B8ue170006ES7_, symObjAddr: 0x3070, symBinAddr: 0x100003B50, symSize: 0x40 }
  - { offsetInCU: 0x16A1C, offset: 0x16A1C, size: 0x8, addend: 0x0, symName: __ZNSt3__128__exception_guard_exceptionsINS_29_AllocatorDestroyRangeReverseINS_9allocatorINS_4pairIiiEEEEPS4_EEEC2B8ue170006ES7_, symObjAddr: 0x30B0, symBinAddr: 0x100003B90, symSize: 0x30 }
  - { offsetInCU: 0x16A54, offset: 0x16A54, size: 0x8, addend: 0x0, symName: __ZNSt3__129_AllocatorDestroyRangeReverseINS_9allocatorINS_4pairIiiEEEEPS3_EC2B8ue170006ERS4_RS5_S8_, symObjAddr: 0x30E0, symBinAddr: 0x100003BC0, symSize: 0x40 }
  - { offsetInCU: 0x16AAB, offset: 0x16AAB, size: 0x8, addend: 0x0, symName: __ZNSt3__19allocatorINS_4pairIiiEEE9constructB8ue170006IS2_JRS2_EEEvPT_DpOT0_, symObjAddr: 0x3120, symBinAddr: 0x100003C00, symSize: 0x20 }
  - { offsetInCU: 0x16B01, offset: 0x16B01, size: 0x8, addend: 0x0, symName: __ZNSt3__128__exception_guard_exceptionsINS_29_AllocatorDestroyRangeReverseINS_9allocatorINS_4pairIiiEEEEPS4_EEED2B8ue170006Ev, symObjAddr: 0x3140, symBinAddr: 0x100003C20, symSize: 0x40 }
  - { offsetInCU: 0x16B2B, offset: 0x16B2B, size: 0x8, addend: 0x0, symName: __ZNKSt3__129_AllocatorDestroyRangeReverseINS_9allocatorINS_4pairIiiEEEEPS3_EclB8ue170006Ev, symObjAddr: 0x3180, symBinAddr: 0x100003C60, symSize: 0x60 }
  - { offsetInCU: 0x16B51, offset: 0x16B51, size: 0x8, addend: 0x0, symName: __ZNSt3__116reverse_iteratorIPNS_4pairIiiEEEC1B8ue170006ES3_, symObjAddr: 0x3250, symBinAddr: 0x100003D30, symSize: 0x30 }
  - { offsetInCU: 0x16B89, offset: 0x16B89, size: 0x8, addend: 0x0, symName: __ZNSt3__116allocator_traitsINS_9allocatorINS_4pairIiiEEEEE7destroyB8ue170006IS3_vEEvRS4_PT_, symObjAddr: 0x32C0, symBinAddr: 0x100003DA0, symSize: 0x30 }
  - { offsetInCU: 0x16BC6, offset: 0x16BC6, size: 0x8, addend: 0x0, symName: __ZNSt3__116reverse_iteratorIPNS_4pairIiiEEEppB8ue170006Ev, symObjAddr: 0x3310, symBinAddr: 0x100003DF0, symSize: 0x20 }
  - { offsetInCU: 0x16BEC, offset: 0x16BEC, size: 0x8, addend: 0x0, symName: __ZNKSt3__116reverse_iteratorIPNS_4pairIiiEEE4baseB8ue170006Ev, symObjAddr: 0x3330, symBinAddr: 0x100003E10, symSize: 0x20 }
  - { offsetInCU: 0x16C12, offset: 0x16C12, size: 0x8, addend: 0x0, symName: __ZNSt3__19allocatorINS_4pairIiiEEE7destroyB8ue170006EPS2_, symObjAddr: 0x3350, symBinAddr: 0x100003E30, symSize: 0x10 }
  - { offsetInCU: 0x16C4B, offset: 0x16C4B, size: 0x8, addend: 0x0, symName: __ZNSt3__119__to_address_helperINS_16reverse_iteratorIPNS_4pairIiiEEEEvE6__callB8ue170006ERKS5_, symObjAddr: 0x3360, symBinAddr: 0x100003E40, symSize: 0x40 }
  - { offsetInCU: 0x16C6E, offset: 0x16C6E, size: 0x8, addend: 0x0, symName: __ZNKSt3__116reverse_iteratorIPNS_4pairIiiEEEptB8ue170006Ev, symObjAddr: 0x33A0, symBinAddr: 0x100003E80, symSize: 0x20 }
  - { offsetInCU: 0x16C94, offset: 0x16C94, size: 0x8, addend: 0x0, symName: __ZNKSt3__116reverse_iteratorIPNS_4pairIiiEEEdeB8ue170006Ev, symObjAddr: 0x33C0, symBinAddr: 0x100003EA0, symSize: 0x30 }
  - { offsetInCU: 0x16CC8, offset: 0x16CC8, size: 0x8, addend: 0x0, symName: __ZNSt3__116reverse_iteratorIPNS_4pairIiiEEEC2B8ue170006ES3_, symObjAddr: 0x33F0, symBinAddr: 0x100003ED0, symSize: 0x30 }
  - { offsetInCU: 0x16D00, offset: 0x16D00, size: 0x8, addend: 0x0, symName: __ZNSt3__118__unwrap_iter_implIPNS_4pairIiiEELb1EE8__unwrapB8ue170006ES3_, symObjAddr: 0x3420, symBinAddr: 0x100003F00, symSize: 0x20 }
  - { offsetInCU: 0x16D23, offset: 0x16D23, size: 0x8, addend: 0x0, symName: __ZNSt3__118__unwrap_iter_implIPNS_4pairIiiEELb1EE8__rewrapB8ue170006ES3_S3_, symObjAddr: 0x3440, symBinAddr: 0x100003F20, symSize: 0x50 }
  - { offsetInCU: 0x16D54, offset: 0x16D54, size: 0x8, addend: 0x0, symName: __ZNSt3__16vectorINS_4pairIiiEENS_9allocatorIS2_EEE21_ConstructTransactionD2B8ue170006Ev, symObjAddr: 0x3490, symBinAddr: 0x100003F70, symSize: 0x20 }
  - { offsetInCU: 0x16D7E, offset: 0x16D7E, size: 0x8, addend: 0x0, symName: __ZNSt3__128__exception_guard_exceptionsINS_6vectorINS_4pairIiiEENS_9allocatorIS3_EEE16__destroy_vectorEED2B8ue170006Ev, symObjAddr: 0x34B0, symBinAddr: 0x100003F90, symSize: 0x40 }
  - { offsetInCU: 0x16DA8, offset: 0x16DA8, size: 0x8, addend: 0x0, symName: __ZNSt3__16vectorINS_4pairIiiEENS_9allocatorIS2_EEE16__destroy_vectorclB8ue170006Ev, symObjAddr: 0x34F0, symBinAddr: 0x100003FD0, symSize: 0x80 }
  - { offsetInCU: 0x16DCE, offset: 0x16DCE, size: 0x8, addend: 0x0, symName: __ZNSt3__16vectorINS_4pairIiiEENS_9allocatorIS2_EEE7__clearB8ue170006Ev, symObjAddr: 0x3570, symBinAddr: 0x100004050, symSize: 0x20 }
  - { offsetInCU: 0x16DF4, offset: 0x16DF4, size: 0x8, addend: 0x0, symName: __ZNKSt3__16vectorINS_4pairIiiEENS_9allocatorIS2_EEE17__annotate_deleteB8ue170006Ev, symObjAddr: 0x3590, symBinAddr: 0x100004070, symSize: 0xB0 }
  - { offsetInCU: 0x16E1A, offset: 0x16E1A, size: 0x8, addend: 0x0, symName: __ZNSt3__116allocator_traitsINS_9allocatorINS_4pairIiiEEEEE10deallocateB8ue170006ERS4_PS3_m, symObjAddr: 0x3640, symBinAddr: 0x100004120, symSize: 0x30 }
  - { offsetInCU: 0x16E5C, offset: 0x16E5C, size: 0x8, addend: 0x0, symName: __ZNSt3__16vectorINS_4pairIiiEENS_9allocatorIS2_EEE22__base_destruct_at_endB8ue170006EPS2_, symObjAddr: 0x3670, symBinAddr: 0x100004150, symSize: 0x80 }
  - { offsetInCU: 0x16EA0, offset: 0x16EA0, size: 0x8, addend: 0x0, symName: __ZNSt3__19allocatorINS_4pairIiiEEE10deallocateB8ue170006EPS2_m, symObjAddr: 0x36F0, symBinAddr: 0x1000041D0, symSize: 0x40 }
  - { offsetInCU: 0x16EE2, offset: 0x16EE2, size: 0x8, addend: 0x0, symName: __ZNSt3__128__exception_guard_exceptionsINS_29_AllocatorDestroyRangeReverseINS_9allocatorINS_6vectorINS_4pairIiiEENS2_IS5_EEEEEEPS7_EEED2B8ue170006Ev, symObjAddr: 0x3830, symBinAddr: 0x100004310, symSize: 0x40 }
  - { offsetInCU: 0x16F0C, offset: 0x16F0C, size: 0x8, addend: 0x0, symName: __ZNKSt3__129_AllocatorDestroyRangeReverseINS_9allocatorINS_6vectorINS_4pairIiiEENS1_IS4_EEEEEEPS6_EclB8ue170006Ev, symObjAddr: 0x3870, symBinAddr: 0x100004350, symSize: 0x60 }
  - { offsetInCU: 0x16F32, offset: 0x16F32, size: 0x8, addend: 0x0, symName: __ZNSt3__116reverse_iteratorIPNS_6vectorINS_4pairIiiEENS_9allocatorIS3_EEEEEC1B8ue170006ES7_, symObjAddr: 0x3940, symBinAddr: 0x100004420, symSize: 0x30 }
  - { offsetInCU: 0x16F6A, offset: 0x16F6A, size: 0x8, addend: 0x0, symName: __ZNSt3__116allocator_traitsINS_9allocatorINS_6vectorINS_4pairIiiEENS1_IS4_EEEEEEE7destroyB8ue170006IS6_vEEvRS7_PT_, symObjAddr: 0x39B0, symBinAddr: 0x100004490, symSize: 0x30 }
  - { offsetInCU: 0x16FA7, offset: 0x16FA7, size: 0x8, addend: 0x0, symName: __ZNSt3__116reverse_iteratorIPNS_6vectorINS_4pairIiiEENS_9allocatorIS3_EEEEEppB8ue170006Ev, symObjAddr: 0x3A00, symBinAddr: 0x1000044E0, symSize: 0x20 }
  - { offsetInCU: 0x16FCD, offset: 0x16FCD, size: 0x8, addend: 0x0, symName: __ZNKSt3__116reverse_iteratorIPNS_6vectorINS_4pairIiiEENS_9allocatorIS3_EEEEE4baseB8ue170006Ev, symObjAddr: 0x3A20, symBinAddr: 0x100004500, symSize: 0x20 }
  - { offsetInCU: 0x16FF3, offset: 0x16FF3, size: 0x8, addend: 0x0, symName: __ZNSt3__19allocatorINS_6vectorINS_4pairIiiEENS0_IS3_EEEEE7destroyB8ue170006EPS5_, symObjAddr: 0x3A40, symBinAddr: 0x100004520, symSize: 0x20 }
  - { offsetInCU: 0x17027, offset: 0x17027, size: 0x8, addend: 0x0, symName: __ZNSt3__16vectorINS_4pairIiiEENS_9allocatorIS2_EEED1B8ue170006Ev, symObjAddr: 0x3A60, symBinAddr: 0x100004540, symSize: 0x20 }
  - { offsetInCU: 0x17051, offset: 0x17051, size: 0x8, addend: 0x0, symName: __ZNSt3__16vectorINS_4pairIiiEENS_9allocatorIS2_EEED2B8ue170006Ev, symObjAddr: 0x3A80, symBinAddr: 0x100004560, symSize: 0x40 }
  - { offsetInCU: 0x17080, offset: 0x17080, size: 0x8, addend: 0x0, symName: __ZNSt3__119__to_address_helperINS_16reverse_iteratorIPNS_6vectorINS_4pairIiiEENS_9allocatorIS4_EEEEEEvE6__callB8ue170006ERKS9_, symObjAddr: 0x3AC0, symBinAddr: 0x1000045A0, symSize: 0x40 }
  - { offsetInCU: 0x170A3, offset: 0x170A3, size: 0x8, addend: 0x0, symName: __ZNKSt3__116reverse_iteratorIPNS_6vectorINS_4pairIiiEENS_9allocatorIS3_EEEEEptB8ue170006Ev, symObjAddr: 0x3B00, symBinAddr: 0x1000045E0, symSize: 0x20 }
  - { offsetInCU: 0x170C9, offset: 0x170C9, size: 0x8, addend: 0x0, symName: __ZNKSt3__116reverse_iteratorIPNS_6vectorINS_4pairIiiEENS_9allocatorIS3_EEEEEdeB8ue170006Ev, symObjAddr: 0x3B20, symBinAddr: 0x100004600, symSize: 0x30 }
  - { offsetInCU: 0x170FD, offset: 0x170FD, size: 0x8, addend: 0x0, symName: __ZNSt3__116reverse_iteratorIPNS_6vectorINS_4pairIiiEENS_9allocatorIS3_EEEEEC2B8ue170006ES7_, symObjAddr: 0x3B50, symBinAddr: 0x100004630, symSize: 0x30 }
  - { offsetInCU: 0x17135, offset: 0x17135, size: 0x8, addend: 0x0, symName: __ZNSt3__118__unwrap_iter_implIPNS_6vectorINS_4pairIiiEENS_9allocatorIS3_EEEELb1EE8__unwrapB8ue170006ES7_, symObjAddr: 0x3B80, symBinAddr: 0x100004660, symSize: 0x20 }
  - { offsetInCU: 0x17158, offset: 0x17158, size: 0x8, addend: 0x0, symName: __ZNSt3__118__unwrap_iter_implIPNS_6vectorINS_4pairIiiEENS_9allocatorIS3_EEEELb1EE8__rewrapB8ue170006ES7_S7_, symObjAddr: 0x3BA0, symBinAddr: 0x100004680, symSize: 0x60 }
  - { offsetInCU: 0x17189, offset: 0x17189, size: 0x8, addend: 0x0, symName: __ZNSt3__16vectorINS0_INS_4pairIiiEENS_9allocatorIS2_EEEENS3_IS5_EEE21_ConstructTransactionD2B8ue170006Ev, symObjAddr: 0x3C00, symBinAddr: 0x1000046E0, symSize: 0x20 }
  - { offsetInCU: 0x171B3, offset: 0x171B3, size: 0x8, addend: 0x0, symName: __ZNSt3__128__exception_guard_exceptionsINS_6vectorINS1_INS_4pairIiiEENS_9allocatorIS3_EEEENS4_IS6_EEE16__destroy_vectorEED2B8ue170006Ev, symObjAddr: 0x3C20, symBinAddr: 0x100004700, symSize: 0x40 }
  - { offsetInCU: 0x171DD, offset: 0x171DD, size: 0x8, addend: 0x0, symName: __ZNSt3__16vectorINS0_INS_4pairIiiEENS_9allocatorIS2_EEEENS3_IS5_EEE16__destroy_vectorclB8ue170006Ev, symObjAddr: 0x3C60, symBinAddr: 0x100004740, symSize: 0x80 }
  - { offsetInCU: 0x17203, offset: 0x17203, size: 0x8, addend: 0x0, symName: __ZNSt3__16vectorINS0_INS_4pairIiiEENS_9allocatorIS2_EEEENS3_IS5_EEE7__clearB8ue170006Ev, symObjAddr: 0x3CE0, symBinAddr: 0x1000047C0, symSize: 0x20 }
  - { offsetInCU: 0x17229, offset: 0x17229, size: 0x8, addend: 0x0, symName: __ZNKSt3__16vectorINS0_INS_4pairIiiEENS_9allocatorIS2_EEEENS3_IS5_EEE17__annotate_deleteB8ue170006Ev, symObjAddr: 0x3D00, symBinAddr: 0x1000047E0, symSize: 0xB0 }
  - { offsetInCU: 0x1724F, offset: 0x1724F, size: 0x8, addend: 0x0, symName: __ZNSt3__116allocator_traitsINS_9allocatorINS_6vectorINS_4pairIiiEENS1_IS4_EEEEEEE10deallocateB8ue170006ERS7_PS6_m, symObjAddr: 0x3DB0, symBinAddr: 0x100004890, symSize: 0x30 }
  - { offsetInCU: 0x17291, offset: 0x17291, size: 0x8, addend: 0x0, symName: __ZNSt3__16vectorINS0_INS_4pairIiiEENS_9allocatorIS2_EEEENS3_IS5_EEE22__base_destruct_at_endB8ue170006EPS5_, symObjAddr: 0x3DE0, symBinAddr: 0x1000048C0, symSize: 0x80 }
  - { offsetInCU: 0x172D5, offset: 0x172D5, size: 0x8, addend: 0x0, symName: __ZNSt3__19allocatorINS_6vectorINS_4pairIiiEENS0_IS3_EEEEE10deallocateB8ue170006EPS5_m, symObjAddr: 0x3E60, symBinAddr: 0x100004940, symSize: 0x50 }
  - { offsetInCU: 0x17317, offset: 0x17317, size: 0x8, addend: 0x0, symName: __ZNSt3__16vectorIiNS_9allocatorIiEEEC2EmRKi, symObjAddr: 0x3EB0, symBinAddr: 0x100004990, symSize: 0xE0 }
  - { offsetInCU: 0x1737B, offset: 0x1737B, size: 0x8, addend: 0x0, symName: __ZNSt3__117__compressed_pairIPiNS_9allocatorIiEEEC1B8ue170006IDnNS_18__default_init_tagEEEOT_OT0_, symObjAddr: 0x3F90, symBinAddr: 0x100004A70, symSize: 0x30 }
  - { offsetInCU: 0x173D3, offset: 0x173D3, size: 0x8, addend: 0x0, symName: __ZNSt3__16vectorIiNS_9allocatorIiEEE16__destroy_vectorC1B8ue170006ERS3_, symObjAddr: 0x4000, symBinAddr: 0x100004AE0, symSize: 0x30 }
  - { offsetInCU: 0x1740C, offset: 0x1740C, size: 0x8, addend: 0x0, symName: __ZNSt3__16vectorIiNS_9allocatorIiEEE11__vallocateB8ue170006Em, symObjAddr: 0x4030, symBinAddr: 0x100004B10, symSize: 0xA0 }
  - { offsetInCU: 0x17450, offset: 0x17450, size: 0x8, addend: 0x0, symName: __ZNSt3__16vectorIiNS_9allocatorIiEEE18__construct_at_endEmRKi, symObjAddr: 0x40D0, symBinAddr: 0x100004BB0, symSize: 0xC0 }
  - { offsetInCU: 0x174D1, offset: 0x174D1, size: 0x8, addend: 0x0, symName: __ZNSt3__128__exception_guard_exceptionsINS_6vectorIiNS_9allocatorIiEEE16__destroy_vectorEE10__completeB8ue170006Ev, symObjAddr: 0x4190, symBinAddr: 0x100004C70, symSize: 0x20 }
  - { offsetInCU: 0x174F7, offset: 0x174F7, size: 0x8, addend: 0x0, symName: __ZNSt3__128__exception_guard_exceptionsINS_6vectorIiNS_9allocatorIiEEE16__destroy_vectorEED1B8ue170006Ev, symObjAddr: 0x41B0, symBinAddr: 0x100004C90, symSize: 0x20 }
  - { offsetInCU: 0x17521, offset: 0x17521, size: 0x8, addend: 0x0, symName: __ZNSt3__117__compressed_pairIPiNS_9allocatorIiEEEC2B8ue170006IDnNS_18__default_init_tagEEEOT_OT0_, symObjAddr: 0x41D0, symBinAddr: 0x100004CB0, symSize: 0x40 }
  - { offsetInCU: 0x17579, offset: 0x17579, size: 0x8, addend: 0x0, symName: __ZNSt3__122__compressed_pair_elemIPiLi0ELb0EEC2B8ue170006IDnvEEOT_, symObjAddr: 0x4210, symBinAddr: 0x100004CF0, symSize: 0x20 }
  - { offsetInCU: 0x175BB, offset: 0x175BB, size: 0x8, addend: 0x0, symName: __ZNSt3__122__compressed_pair_elemINS_9allocatorIiEELi1ELb1EEC2B8ue170006ENS_18__default_init_tagE, symObjAddr: 0x4230, symBinAddr: 0x100004D10, symSize: 0x20 }
  - { offsetInCU: 0x175EF, offset: 0x175EF, size: 0x8, addend: 0x0, symName: __ZNSt3__19allocatorIiEC2B8ue170006Ev, symObjAddr: 0x4250, symBinAddr: 0x100004D30, symSize: 0x20 }
  - { offsetInCU: 0x17619, offset: 0x17619, size: 0x8, addend: 0x0, symName: __ZNSt3__116__non_trivial_ifILb1ENS_9allocatorIiEEEC2B8ue170006Ev, symObjAddr: 0x4270, symBinAddr: 0x100004D50, symSize: 0x10 }
  - { offsetInCU: 0x17643, offset: 0x17643, size: 0x8, addend: 0x0, symName: __ZNSt3__128__exception_guard_exceptionsINS_6vectorIiNS_9allocatorIiEEE16__destroy_vectorEEC1B8ue170006ES5_, symObjAddr: 0x4280, symBinAddr: 0x100004D60, symSize: 0x30 }
  - { offsetInCU: 0x1767B, offset: 0x1767B, size: 0x8, addend: 0x0, symName: __ZNSt3__128__exception_guard_exceptionsINS_6vectorIiNS_9allocatorIiEEE16__destroy_vectorEEC2B8ue170006ES5_, symObjAddr: 0x42B0, symBinAddr: 0x100004D90, symSize: 0x20 }
  - { offsetInCU: 0x176B3, offset: 0x176B3, size: 0x8, addend: 0x0, symName: __ZNSt3__16vectorIiNS_9allocatorIiEEE16__destroy_vectorC2B8ue170006ERS3_, symObjAddr: 0x42D0, symBinAddr: 0x100004DB0, symSize: 0x20 }
  - { offsetInCU: 0x176EC, offset: 0x176EC, size: 0x8, addend: 0x0, symName: __ZNKSt3__16vectorIiNS_9allocatorIiEEE8max_sizeEv, symObjAddr: 0x42F0, symBinAddr: 0x100004DD0, symSize: 0x60 }
  - { offsetInCU: 0x17714, offset: 0x17714, size: 0x8, addend: 0x0, symName: __ZNKSt3__16vectorIiNS_9allocatorIiEEE20__throw_length_errorB8ue170006Ev, symObjAddr: 0x4350, symBinAddr: 0x100004E30, symSize: 0x20 }
  - { offsetInCU: 0x1773A, offset: 0x1773A, size: 0x8, addend: 0x0, symName: __ZNSt3__16vectorIiNS_9allocatorIiEEE7__allocB8ue170006Ev, symObjAddr: 0x43B0, symBinAddr: 0x100004E90, symSize: 0x20 }
  - { offsetInCU: 0x17760, offset: 0x17760, size: 0x8, addend: 0x0, symName: __ZNSt3__16vectorIiNS_9allocatorIiEEE9__end_capB8ue170006Ev, symObjAddr: 0x43D0, symBinAddr: 0x100004EB0, symSize: 0x20 }
  - { offsetInCU: 0x17786, offset: 0x17786, size: 0x8, addend: 0x0, symName: __ZNKSt3__16vectorIiNS_9allocatorIiEEE14__annotate_newB8ue170006Em, symObjAddr: 0x43F0, symBinAddr: 0x100004ED0, symSize: 0xB0 }
  - { offsetInCU: 0x177C5, offset: 0x177C5, size: 0x8, addend: 0x0, symName: __ZNSt3__116allocator_traitsINS_9allocatorIiEEE8max_sizeB8ue170006IS2_vEEmRKS2_, symObjAddr: 0x44A0, symBinAddr: 0x100004F80, symSize: 0x20 }
  - { offsetInCU: 0x177F3, offset: 0x177F3, size: 0x8, addend: 0x0, symName: __ZNKSt3__16vectorIiNS_9allocatorIiEEE7__allocB8ue170006Ev, symObjAddr: 0x44C0, symBinAddr: 0x100004FA0, symSize: 0x20 }
  - { offsetInCU: 0x17819, offset: 0x17819, size: 0x8, addend: 0x0, symName: __ZNKSt3__19allocatorIiE8max_sizeB8ue170006Ev, symObjAddr: 0x44E0, symBinAddr: 0x100004FC0, symSize: 0x20 }
  - { offsetInCU: 0x1783F, offset: 0x1783F, size: 0x8, addend: 0x0, symName: __ZNKSt3__117__compressed_pairIPiNS_9allocatorIiEEE6secondB8ue170006Ev, symObjAddr: 0x4500, symBinAddr: 0x100004FE0, symSize: 0x20 }
  - { offsetInCU: 0x17865, offset: 0x17865, size: 0x8, addend: 0x0, symName: __ZNKSt3__122__compressed_pair_elemINS_9allocatorIiEELi1ELb1EE5__getB8ue170006Ev, symObjAddr: 0x4520, symBinAddr: 0x100005000, symSize: 0x10 }
  - { offsetInCU: 0x1788B, offset: 0x1788B, size: 0x8, addend: 0x0, symName: __ZNSt3__19allocatorIiE8allocateB8ue170006Em, symObjAddr: 0x4530, symBinAddr: 0x100005010, symSize: 0x50 }
  - { offsetInCU: 0x178BF, offset: 0x178BF, size: 0x8, addend: 0x0, symName: __ZNSt3__117__compressed_pairIPiNS_9allocatorIiEEE6secondB8ue170006Ev, symObjAddr: 0x4580, symBinAddr: 0x100005060, symSize: 0x20 }
  - { offsetInCU: 0x178E5, offset: 0x178E5, size: 0x8, addend: 0x0, symName: __ZNSt3__122__compressed_pair_elemINS_9allocatorIiEELi1ELb1EE5__getB8ue170006Ev, symObjAddr: 0x45A0, symBinAddr: 0x100005080, symSize: 0x10 }
  - { offsetInCU: 0x1790B, offset: 0x1790B, size: 0x8, addend: 0x0, symName: __ZNSt3__117__compressed_pairIPiNS_9allocatorIiEEE5firstB8ue170006Ev, symObjAddr: 0x45B0, symBinAddr: 0x100005090, symSize: 0x20 }
  - { offsetInCU: 0x17931, offset: 0x17931, size: 0x8, addend: 0x0, symName: __ZNSt3__122__compressed_pair_elemIPiLi0ELb0EE5__getB8ue170006Ev, symObjAddr: 0x45D0, symBinAddr: 0x1000050B0, symSize: 0x10 }
  - { offsetInCU: 0x17957, offset: 0x17957, size: 0x8, addend: 0x0, symName: __ZNKSt3__16vectorIiNS_9allocatorIiEEE31__annotate_contiguous_containerB8ue170006EPKvS5_S5_S5_, symObjAddr: 0x45E0, symBinAddr: 0x1000050C0, symSize: 0x20 }
  - { offsetInCU: 0x179A9, offset: 0x179A9, size: 0x8, addend: 0x0, symName: __ZNKSt3__16vectorIiNS_9allocatorIiEEE4dataB8ue170006Ev, symObjAddr: 0x4600, symBinAddr: 0x1000050E0, symSize: 0x20 }
  - { offsetInCU: 0x179CF, offset: 0x179CF, size: 0x8, addend: 0x0, symName: __ZNKSt3__16vectorIiNS_9allocatorIiEEE8capacityB8ue170006Ev, symObjAddr: 0x4620, symBinAddr: 0x100005100, symSize: 0x30 }
  - { offsetInCU: 0x179F5, offset: 0x179F5, size: 0x8, addend: 0x0, symName: __ZNKSt3__16vectorIiNS_9allocatorIiEEE9__end_capB8ue170006Ev, symObjAddr: 0x4660, symBinAddr: 0x100005140, symSize: 0x20 }
  - { offsetInCU: 0x17A1B, offset: 0x17A1B, size: 0x8, addend: 0x0, symName: __ZNKSt3__117__compressed_pairIPiNS_9allocatorIiEEE5firstB8ue170006Ev, symObjAddr: 0x4680, symBinAddr: 0x100005160, symSize: 0x20 }
  - { offsetInCU: 0x17A41, offset: 0x17A41, size: 0x8, addend: 0x0, symName: __ZNKSt3__122__compressed_pair_elemIPiLi0ELb0EE5__getB8ue170006Ev, symObjAddr: 0x46A0, symBinAddr: 0x100005180, symSize: 0x10 }
  - { offsetInCU: 0x17A80, offset: 0x17A80, size: 0x8, addend: 0x0, symName: __ZNSt3__16vectorIiNS_9allocatorIiEEE21_ConstructTransactionC1B8ue170006ERS3_m, symObjAddr: 0x46B0, symBinAddr: 0x100005190, symSize: 0x30 }
  - { offsetInCU: 0x17AC8, offset: 0x17AC8, size: 0x8, addend: 0x0, symName: __ZNSt3__116allocator_traitsINS_9allocatorIiEEE9constructB8ue170006IiJRKiEvEEvRS2_PT_DpOT0_, symObjAddr: 0x46E0, symBinAddr: 0x1000051C0, symSize: 0x30 }
  - { offsetInCU: 0x17B1F, offset: 0x17B1F, size: 0x8, addend: 0x0, symName: __ZNSt3__16vectorIiNS_9allocatorIiEEE21_ConstructTransactionD1B8ue170006Ev, symObjAddr: 0x4710, symBinAddr: 0x1000051F0, symSize: 0x20 }
  - { offsetInCU: 0x17B49, offset: 0x17B49, size: 0x8, addend: 0x0, symName: __ZNSt3__16vectorIiNS_9allocatorIiEEE21_ConstructTransactionC2B8ue170006ERS3_m, symObjAddr: 0x4730, symBinAddr: 0x100005210, symSize: 0x40 }
  - { offsetInCU: 0x17B91, offset: 0x17B91, size: 0x8, addend: 0x0, symName: __ZNSt3__19allocatorIiE9constructB8ue170006IiJRKiEEEvPT_DpOT0_, symObjAddr: 0x4770, symBinAddr: 0x100005250, symSize: 0x20 }
  - { offsetInCU: 0x17BE7, offset: 0x17BE7, size: 0x8, addend: 0x0, symName: __ZNSt3__16vectorIiNS_9allocatorIiEEE21_ConstructTransactionD2B8ue170006Ev, symObjAddr: 0x4790, symBinAddr: 0x100005270, symSize: 0x20 }
  - { offsetInCU: 0x17C11, offset: 0x17C11, size: 0x8, addend: 0x0, symName: __ZNSt3__128__exception_guard_exceptionsINS_6vectorIiNS_9allocatorIiEEE16__destroy_vectorEED2B8ue170006Ev, symObjAddr: 0x47B0, symBinAddr: 0x100005290, symSize: 0x40 }
  - { offsetInCU: 0x17C3B, offset: 0x17C3B, size: 0x8, addend: 0x0, symName: __ZNSt3__16vectorIiNS_9allocatorIiEEE16__destroy_vectorclB8ue170006Ev, symObjAddr: 0x47F0, symBinAddr: 0x1000052D0, symSize: 0x80 }
  - { offsetInCU: 0x17C61, offset: 0x17C61, size: 0x8, addend: 0x0, symName: __ZNSt3__16vectorIiNS_9allocatorIiEEE7__clearB8ue170006Ev, symObjAddr: 0x4870, symBinAddr: 0x100005350, symSize: 0x20 }
  - { offsetInCU: 0x17C87, offset: 0x17C87, size: 0x8, addend: 0x0, symName: __ZNKSt3__16vectorIiNS_9allocatorIiEEE17__annotate_deleteB8ue170006Ev, symObjAddr: 0x4890, symBinAddr: 0x100005370, symSize: 0xB0 }
  - { offsetInCU: 0x17CAD, offset: 0x17CAD, size: 0x8, addend: 0x0, symName: __ZNSt3__116allocator_traitsINS_9allocatorIiEEE10deallocateB8ue170006ERS2_Pim, symObjAddr: 0x4940, symBinAddr: 0x100005420, symSize: 0x30 }
  - { offsetInCU: 0x17CEF, offset: 0x17CEF, size: 0x8, addend: 0x0, symName: __ZNSt3__16vectorIiNS_9allocatorIiEEE22__base_destruct_at_endB8ue170006EPi, symObjAddr: 0x4970, symBinAddr: 0x100005450, symSize: 0x80 }
  - { offsetInCU: 0x17D33, offset: 0x17D33, size: 0x8, addend: 0x0, symName: __ZNSt3__116allocator_traitsINS_9allocatorIiEEE7destroyB8ue170006IivEEvRS2_PT_, symObjAddr: 0x49F0, symBinAddr: 0x1000054D0, symSize: 0x30 }
  - { offsetInCU: 0x17D70, offset: 0x17D70, size: 0x8, addend: 0x0, symName: __ZNSt3__19allocatorIiE7destroyB8ue170006EPi, symObjAddr: 0x4A20, symBinAddr: 0x100005500, symSize: 0x10 }
  - { offsetInCU: 0x17DA4, offset: 0x17DA4, size: 0x8, addend: 0x0, symName: __ZNKSt3__16vectorIiNS_9allocatorIiEEE4sizeB8ue170006Ev, symObjAddr: 0x4A30, symBinAddr: 0x100005510, symSize: 0x20 }
  - { offsetInCU: 0x17DCA, offset: 0x17DCA, size: 0x8, addend: 0x0, symName: __ZNSt3__19allocatorIiE10deallocateB8ue170006EPim, symObjAddr: 0x4A50, symBinAddr: 0x100005530, symSize: 0x40 }
  - { offsetInCU: 0x17E0C, offset: 0x17E0C, size: 0x8, addend: 0x0, symName: __ZNSt3__16vectorIiNS_9allocatorIiEEED2B8ue170006Ev, symObjAddr: 0x4A90, symBinAddr: 0x100005570, symSize: 0x40 }
  - { offsetInCU: 0x17E36, offset: 0x17E36, size: 0x8, addend: 0x0, symName: __ZN4sssp8dijkstraEi, symObjAddr: 0x4AD0, symBinAddr: 0x1000055B0, symSize: 0x450 }
  - { offsetInCU: 0x17F55, offset: 0x17F55, size: 0x8, addend: 0x0, symName: __ZNSt3__16vectorIiNS_9allocatorIiEEEixB8ue170006Em, symObjAddr: 0x4F20, symBinAddr: 0x100005A00, symSize: 0x20 }
  - { offsetInCU: 0x17FE2, offset: 0x17FE2, size: 0x8, addend: 0x0, symName: __ZN21NoPathExistsExceptionC1Ev, symObjAddr: 0x4F40, symBinAddr: 0x100005A20, symSize: 0x20 }
  - { offsetInCU: 0x1800C, offset: 0x1800C, size: 0x8, addend: 0x0, symName: __ZN21NoPathExistsExceptionD1Ev, symObjAddr: 0x4F60, symBinAddr: 0x100005A40, symSize: 0x20 }
  - { offsetInCU: 0x18038, offset: 0x18038, size: 0x8, addend: 0x0, symName: __ZNSt3__16vectorIiNS_9allocatorIiEEEC1B8ue170006Ev, symObjAddr: 0x4F80, symBinAddr: 0x100005A60, symSize: 0x20 }
  - { offsetInCU: 0x18062, offset: 0x18062, size: 0x8, addend: 0x0, symName: __ZNSt3__16vectorIiNS_9allocatorIiEEE9push_backB8ue170006ERKi, symObjAddr: 0x4FA0, symBinAddr: 0x100005A80, symSize: 0x60 }
  - { offsetInCU: 0x180DF, offset: 0x180DF, size: 0x8, addend: 0x0, symName: __ZNSt3__114priority_queueINS_4pairIiiEENS_6vectorIS2_NS_9allocatorIS2_EEEEZN4sssp8dijkstraEiEUlS2_S2_E_EC1B8ue170006ERKS8_, symObjAddr: 0x5080, symBinAddr: 0x100005B60, symSize: 0x30 }
  - { offsetInCU: 0x18118, offset: 0x18118, size: 0x8, addend: 0x0, symName: __ZNSt3__16vectorIbNS_9allocatorIbEEEC1EmRKb, symObjAddr: 0x50B0, symBinAddr: 0x100005B90, symSize: 0x30 }
  - { offsetInCU: 0x18162, offset: 0x18162, size: 0x8, addend: 0x0, symName: __ZNSt3__114priority_queueINS_4pairIiiEENS_6vectorIS2_NS_9allocatorIS2_EEEEZN4sssp8dijkstraEiEUlS2_S2_E_E4pushEOS2_, symObjAddr: 0x50E0, symBinAddr: 0x100005BC0, symSize: 0x50 }
  - { offsetInCU: 0x18199, offset: 0x18199, size: 0x8, addend: 0x0, symName: __ZNKSt3__114priority_queueINS_4pairIiiEENS_6vectorIS2_NS_9allocatorIS2_EEEEZN4sssp8dijkstraEiEUlS2_S2_E_E5emptyB8ue170006Ev, symObjAddr: 0x5160, symBinAddr: 0x100005C40, symSize: 0x20 }
  - { offsetInCU: 0x181BF, offset: 0x181BF, size: 0x8, addend: 0x0, symName: __ZNKSt3__114priority_queueINS_4pairIiiEENS_6vectorIS2_NS_9allocatorIS2_EEEEZN4sssp8dijkstraEiEUlS2_S2_E_E3topB8ue170006Ev, symObjAddr: 0x5180, symBinAddr: 0x100005C60, symSize: 0x20 }
  - { offsetInCU: 0x181E5, offset: 0x181E5, size: 0x8, addend: 0x0, symName: __ZNSt3__114priority_queueINS_4pairIiiEENS_6vectorIS2_NS_9allocatorIS2_EEEEZN4sssp8dijkstraEiEUlS2_S2_E_E3popEv, symObjAddr: 0x51E0, symBinAddr: 0x100005CC0, symSize: 0x50 }
  - { offsetInCU: 0x1820D, offset: 0x1820D, size: 0x8, addend: 0x0, symName: __ZNSt3__16vectorIbNS_9allocatorIbEEEixB8ue170006Em, symObjAddr: 0x5230, symBinAddr: 0x100005D10, symSize: 0x40 }
  - { offsetInCU: 0x18242, offset: 0x18242, size: 0x8, addend: 0x0, symName: __ZNKSt3__115__bit_referenceINS_6vectorIbNS_9allocatorIbEEEELb1EEcvbB8ue170006Ev, symObjAddr: 0x5270, symBinAddr: 0x100005D50, symSize: 0x30 }
  - { offsetInCU: 0x18268, offset: 0x18268, size: 0x8, addend: 0x0, symName: __ZNSt3__115__bit_referenceINS_6vectorIbNS_9allocatorIbEEEELb1EEaSB8ue170006Eb, symObjAddr: 0x52A0, symBinAddr: 0x100005D80, symSize: 0x60 }
  - { offsetInCU: 0x1829C, offset: 0x1829C, size: 0x8, addend: 0x0, symName: __ZNSt3__16vectorINS_4pairIiiEENS_9allocatorIS2_EEE5beginB8ue170006Ev, symObjAddr: 0x5300, symBinAddr: 0x100005DE0, symSize: 0x30 }
  - { offsetInCU: 0x182C4, offset: 0x182C4, size: 0x8, addend: 0x0, symName: __ZNSt3__16vectorINS_4pairIiiEENS_9allocatorIS2_EEE3endB8ue170006Ev, symObjAddr: 0x5330, symBinAddr: 0x100005E10, symSize: 0x30 }
  - { offsetInCU: 0x182EC, offset: 0x182EC, size: 0x8, addend: 0x0, symName: __ZNKSt3__111__wrap_iterIPNS_4pairIiiEEEdeB8ue170006Ev, symObjAddr: 0x5390, symBinAddr: 0x100005E70, symSize: 0x20 }
  - { offsetInCU: 0x18312, offset: 0x18312, size: 0x8, addend: 0x0, symName: __ZNSt3__111__wrap_iterIPNS_4pairIiiEEEppB8ue170006Ev, symObjAddr: 0x53B0, symBinAddr: 0x100005E90, symSize: 0x20 }
  - { offsetInCU: 0x18338, offset: 0x18338, size: 0x8, addend: 0x0, symName: __ZNSt3__16vectorIbNS_9allocatorIbEEED1B8ue170006Ev, symObjAddr: 0x53D0, symBinAddr: 0x100005EB0, symSize: 0x20 }
  - { offsetInCU: 0x18362, offset: 0x18362, size: 0x8, addend: 0x0, symName: __ZNSt3__114priority_queueINS_4pairIiiEENS_6vectorIS2_NS_9allocatorIS2_EEEEZN4sssp8dijkstraEiEUlS2_S2_E_ED1Ev, symObjAddr: 0x53F0, symBinAddr: 0x100005ED0, symSize: 0x20 }
  - { offsetInCU: 0x1838F, offset: 0x1838F, size: 0x8, addend: 0x0, symName: __ZNSt3__114priority_queueINS_4pairIiiEENS_6vectorIS2_NS_9allocatorIS2_EEEEZN4sssp8dijkstraEiEUlS2_S2_E_EC2B8ue170006ERKS8_, symObjAddr: 0x5410, symBinAddr: 0x100005EF0, symSize: 0x20 }
  - { offsetInCU: 0x183C8, offset: 0x183C8, size: 0x8, addend: 0x0, symName: __ZNSt3__16vectorINS_4pairIiiEENS_9allocatorIS2_EEEC1B8ue170006Ev, symObjAddr: 0x5430, symBinAddr: 0x100005F10, symSize: 0x20 }
  - { offsetInCU: 0x183F2, offset: 0x183F2, size: 0x8, addend: 0x0, symName: __ZNSt3__16vectorINS_4pairIiiEENS_9allocatorIS2_EEEC2B8ue170006Ev, symObjAddr: 0x5450, symBinAddr: 0x100005F30, symSize: 0x50 }
  - { offsetInCU: 0x1841C, offset: 0x1841C, size: 0x8, addend: 0x0, symName: __ZNSt3__117__compressed_pairIPNS_4pairIiiEENS_9allocatorIS2_EEEC1B8ue170006IDnNS_18__default_init_tagEEEOT_OT0_, symObjAddr: 0x54A0, symBinAddr: 0x100005F80, symSize: 0x30 }
  - { offsetInCU: 0x18474, offset: 0x18474, size: 0x8, addend: 0x0, symName: __ZNSt3__117__compressed_pairIPNS_4pairIiiEENS_9allocatorIS2_EEEC2B8ue170006IDnNS_18__default_init_tagEEEOT_OT0_, symObjAddr: 0x54D0, symBinAddr: 0x100005FB0, symSize: 0x40 }
  - { offsetInCU: 0x184CC, offset: 0x184CC, size: 0x8, addend: 0x0, symName: __ZNSt3__122__compressed_pair_elemINS_9allocatorINS_4pairIiiEEEELi1ELb1EEC2B8ue170006ENS_18__default_init_tagE, symObjAddr: 0x5510, symBinAddr: 0x100005FF0, symSize: 0x20 }
  - { offsetInCU: 0x18500, offset: 0x18500, size: 0x8, addend: 0x0, symName: __ZNSt3__19allocatorINS_4pairIiiEEEC2B8ue170006Ev, symObjAddr: 0x5530, symBinAddr: 0x100006010, symSize: 0x20 }
  - { offsetInCU: 0x1852A, offset: 0x1852A, size: 0x8, addend: 0x0, symName: __ZNSt3__116__non_trivial_ifILb1ENS_9allocatorINS_4pairIiiEEEEEC2B8ue170006Ev, symObjAddr: 0x5550, symBinAddr: 0x100006030, symSize: 0x10 }
  - { offsetInCU: 0x18554, offset: 0x18554, size: 0x8, addend: 0x0, symName: __ZNSt3__16vectorIbNS_9allocatorIbEEEC2EmRKb, symObjAddr: 0x5560, symBinAddr: 0x100006040, symSize: 0x80 }
  - { offsetInCU: 0x1859E, offset: 0x1859E, size: 0x8, addend: 0x0, symName: __ZNSt3__117__compressed_pairImNS_9allocatorImEEEC1B8ue170006IiNS_18__default_init_tagEEEOT_OT0_, symObjAddr: 0x55E0, symBinAddr: 0x1000060C0, symSize: 0x30 }
  - { offsetInCU: 0x185F6, offset: 0x185F6, size: 0x8, addend: 0x0, symName: __ZNSt3__16vectorIbNS_9allocatorIbEEE11__vallocateB8ue170006Em, symObjAddr: 0x5610, symBinAddr: 0x1000060F0, symSize: 0xA0 }
  - { offsetInCU: 0x1863A, offset: 0x1863A, size: 0x8, addend: 0x0, symName: __ZNSt3__16vectorIbNS_9allocatorIbEEE18__construct_at_endB8ue170006Emb, symObjAddr: 0x56B0, symBinAddr: 0x100006190, symSize: 0xE0 }
  - { offsetInCU: 0x1868F, offset: 0x1868F, size: 0x8, addend: 0x0, symName: __ZNSt3__117__compressed_pairImNS_9allocatorImEEEC2B8ue170006IiNS_18__default_init_tagEEEOT_OT0_, symObjAddr: 0x5790, symBinAddr: 0x100006270, symSize: 0x40 }
  - { offsetInCU: 0x186E7, offset: 0x186E7, size: 0x8, addend: 0x0, symName: __ZNSt3__122__compressed_pair_elemImLi0ELb0EEC2B8ue170006IivEEOT_, symObjAddr: 0x57D0, symBinAddr: 0x1000062B0, symSize: 0x20 }
  - { offsetInCU: 0x18729, offset: 0x18729, size: 0x8, addend: 0x0, symName: __ZNSt3__122__compressed_pair_elemINS_9allocatorImEELi1ELb1EEC2B8ue170006ENS_18__default_init_tagE, symObjAddr: 0x57F0, symBinAddr: 0x1000062D0, symSize: 0x20 }
  - { offsetInCU: 0x1875D, offset: 0x1875D, size: 0x8, addend: 0x0, symName: __ZNSt3__19allocatorImEC2B8ue170006Ev, symObjAddr: 0x5810, symBinAddr: 0x1000062F0, symSize: 0x20 }
  - { offsetInCU: 0x18787, offset: 0x18787, size: 0x8, addend: 0x0, symName: __ZNSt3__116__non_trivial_ifILb1ENS_9allocatorImEEEC2B8ue170006Ev, symObjAddr: 0x5830, symBinAddr: 0x100006310, symSize: 0x10 }
  - { offsetInCU: 0x187B1, offset: 0x187B1, size: 0x8, addend: 0x0, symName: __ZNKSt3__16vectorIbNS_9allocatorIbEEE8max_sizeEv, symObjAddr: 0x5840, symBinAddr: 0x100006320, symSize: 0x70 }
  - { offsetInCU: 0x187F7, offset: 0x187F7, size: 0x8, addend: 0x0, symName: __ZNKSt3__16vectorIbNS_9allocatorIbEEE20__throw_length_errorB8ue170006Ev, symObjAddr: 0x58B0, symBinAddr: 0x100006390, symSize: 0x20 }
  - { offsetInCU: 0x1881D, offset: 0x1881D, size: 0x8, addend: 0x0, symName: __ZNSt3__16vectorIbNS_9allocatorIbEEE7__allocB8ue170006Ev, symObjAddr: 0x5910, symBinAddr: 0x1000063F0, symSize: 0x20 }
  - { offsetInCU: 0x18843, offset: 0x18843, size: 0x8, addend: 0x0, symName: __ZNSt3__16vectorIbNS_9allocatorIbEEE26__external_cap_to_internalB8ue170006Em, symObjAddr: 0x5930, symBinAddr: 0x100006410, symSize: 0x20 }
  - { offsetInCU: 0x18867, offset: 0x18867, size: 0x8, addend: 0x0, symName: __ZNSt3__16vectorIbNS_9allocatorIbEEE5__capB8ue170006Ev, symObjAddr: 0x5950, symBinAddr: 0x100006430, symSize: 0x20 }
  - { offsetInCU: 0x18897, offset: 0x18897, size: 0x8, addend: 0x0, symName: __ZNSt3__116allocator_traitsINS_9allocatorImEEE8max_sizeB8ue170006IS2_vEEmRKS2_, symObjAddr: 0x5970, symBinAddr: 0x100006450, symSize: 0x20 }
  - { offsetInCU: 0x188C5, offset: 0x188C5, size: 0x8, addend: 0x0, symName: __ZNKSt3__16vectorIbNS_9allocatorIbEEE7__allocB8ue170006Ev, symObjAddr: 0x5990, symBinAddr: 0x100006470, symSize: 0x20 }
  - { offsetInCU: 0x188EB, offset: 0x188EB, size: 0x8, addend: 0x0, symName: __ZNSt3__114numeric_limitsImE3maxB8ue170006Ev, symObjAddr: 0x59B0, symBinAddr: 0x100006490, symSize: 0x10 }
  - { offsetInCU: 0x188FF, offset: 0x188FF, size: 0x8, addend: 0x0, symName: __ZNSt3__16vectorIbNS_9allocatorIbEEE26__internal_cap_to_externalB8ue170006Em, symObjAddr: 0x59C0, symBinAddr: 0x1000064A0, symSize: 0x20 }
  - { offsetInCU: 0x18923, offset: 0x18923, size: 0x8, addend: 0x0, symName: __ZNKSt3__19allocatorImE8max_sizeB8ue170006Ev, symObjAddr: 0x59E0, symBinAddr: 0x1000064C0, symSize: 0x20 }
  - { offsetInCU: 0x18949, offset: 0x18949, size: 0x8, addend: 0x0, symName: __ZNKSt3__117__compressed_pairImNS_9allocatorImEEE6secondB8ue170006Ev, symObjAddr: 0x5A00, symBinAddr: 0x1000064E0, symSize: 0x20 }
  - { offsetInCU: 0x1896F, offset: 0x1896F, size: 0x8, addend: 0x0, symName: __ZNKSt3__122__compressed_pair_elemINS_9allocatorImEELi1ELb1EE5__getB8ue170006Ev, symObjAddr: 0x5A20, symBinAddr: 0x100006500, symSize: 0x10 }
  - { offsetInCU: 0x18995, offset: 0x18995, size: 0x8, addend: 0x0, symName: __ZNSt3__123__libcpp_numeric_limitsImLb1EE3maxB8ue170006Ev, symObjAddr: 0x5A30, symBinAddr: 0x100006510, symSize: 0x10 }
  - { offsetInCU: 0x189A9, offset: 0x189A9, size: 0x8, addend: 0x0, symName: __ZNSt3__19allocatorImE8allocateB8ue170006Em, symObjAddr: 0x5A40, symBinAddr: 0x100006520, symSize: 0x50 }
  - { offsetInCU: 0x189DD, offset: 0x189DD, size: 0x8, addend: 0x0, symName: __ZNSt3__117__compressed_pairImNS_9allocatorImEEE6secondB8ue170006Ev, symObjAddr: 0x5A90, symBinAddr: 0x100006570, symSize: 0x20 }
  - { offsetInCU: 0x18A03, offset: 0x18A03, size: 0x8, addend: 0x0, symName: __ZNSt3__122__compressed_pair_elemINS_9allocatorImEELi1ELb1EE5__getB8ue170006Ev, symObjAddr: 0x5AB0, symBinAddr: 0x100006590, symSize: 0x10 }
  - { offsetInCU: 0x18A29, offset: 0x18A29, size: 0x8, addend: 0x0, symName: __ZNSt3__117__compressed_pairImNS_9allocatorImEEE5firstB8ue170006Ev, symObjAddr: 0x5AC0, symBinAddr: 0x1000065A0, symSize: 0x20 }
  - { offsetInCU: 0x18A4F, offset: 0x18A4F, size: 0x8, addend: 0x0, symName: __ZNSt3__122__compressed_pair_elemImLi0ELb0EE5__getB8ue170006Ev, symObjAddr: 0x5AE0, symBinAddr: 0x1000065C0, symSize: 0x10 }
  - { offsetInCU: 0x18A75, offset: 0x18A75, size: 0x8, addend: 0x0, symName: __ZNSt3__16vectorIbNS_9allocatorIbEEE11__make_iterB8ue170006Em, symObjAddr: 0x5B70, symBinAddr: 0x100006650, symSize: 0x50 }
  - { offsetInCU: 0x18AAA, offset: 0x18AAA, size: 0x8, addend: 0x0, symName: __ZNSt3__114__bit_iteratorINS_6vectorIbNS_9allocatorIbEEEELb0ELm0EEC1B8ue170006ERKS5_, symObjAddr: 0x5D00, symBinAddr: 0x1000067E0, symSize: 0x30 }
  - { offsetInCU: 0x18AE3, offset: 0x18AE3, size: 0x8, addend: 0x0, symName: __ZNSt3__114__bit_iteratorINS_6vectorIbNS_9allocatorIbEEEELb0ELm0EEC2B8ue170006ERKS5_, symObjAddr: 0x5F20, symBinAddr: 0x100006A00, symSize: 0x30 }
  - { offsetInCU: 0x18B1C, offset: 0x18B1C, size: 0x8, addend: 0x0, symName: __ZNSt3__114__bit_iteratorINS_6vectorIbNS_9allocatorIbEEEELb0ELm0EEC1B8ue170006EPmj, symObjAddr: 0x5FE0, symBinAddr: 0x100006AC0, symSize: 0x30 }
  - { offsetInCU: 0x18B64, offset: 0x18B64, size: 0x8, addend: 0x0, symName: __ZNSt3__114__bit_iteratorINS_6vectorIbNS_9allocatorIbEEEELb0ELm0EEC2B8ue170006EPmj, symObjAddr: 0x6010, symBinAddr: 0x100006AF0, symSize: 0x30 }
  - { offsetInCU: 0x18BAC, offset: 0x18BAC, size: 0x8, addend: 0x0, symName: __ZNKSt3__111__wrap_iterIPNS_4pairIiiEEE4baseB8ue170006Ev, symObjAddr: 0x6280, symBinAddr: 0x100006D60, symSize: 0x20 }
  - { offsetInCU: 0x18BD2, offset: 0x18BD2, size: 0x8, addend: 0x0, symName: __ZNKSt3__111__wrap_iterIPNS_4pairIiiEEEplB8ue170006El, symObjAddr: 0x62A0, symBinAddr: 0x100006D80, symSize: 0x40 }
  - { offsetInCU: 0x18C29, offset: 0x18C29, size: 0x8, addend: 0x0, symName: __ZZN4sssp8dijkstraEiENKUlNSt3__14pairIiiEES2_E_clES2_S2_, symObjAddr: 0x62E0, symBinAddr: 0x100006DC0, symSize: 0x50 }
  - { offsetInCU: 0x18C6F, offset: 0x18C6F, size: 0x8, addend: 0x0, symName: __ZNSt3__111__wrap_iterIPNS_4pairIiiEEEmmB8ue170006Ev, symObjAddr: 0x6330, symBinAddr: 0x100006E10, symSize: 0x20 }
  - { offsetInCU: 0x18C95, offset: 0x18C95, size: 0x8, addend: 0x0, symName: __ZNSt3__18_IterOpsINS_17_ClassicAlgPolicyEE11__iter_moveB8ue170006IRNS_11__wrap_iterIPNS_4pairIiiEEEEEENS_9enable_ifIXsr12is_referenceIDTdeclsr3stdE7declvalIRT_EEEEE5valueEDTclsr3stdE4movedeclsr3stdE7declvalISC_EEEEE4typeEOSB_, symObjAddr: 0x6350, symBinAddr: 0x100006E30, symSize: 0x20 }
  - { offsetInCU: 0x18CC1, offset: 0x18CC1, size: 0x8, addend: 0x0, symName: __ZNSt3__14pairIiiEaSB8ue170006EOS1_, symObjAddr: 0x6370, symBinAddr: 0x100006E50, symSize: 0x30 }
  - { offsetInCU: 0x18CF6, offset: 0x18CF6, size: 0x8, addend: 0x0, symName: __ZNSt3__111__wrap_iterIPNS_4pairIiiEEEpLB8ue170006El, symObjAddr: 0x63A0, symBinAddr: 0x100006E80, symSize: 0x20 }
  - { offsetInCU: 0x18D2A, offset: 0x18D2A, size: 0x8, addend: 0x0, symName: __ZNSt3__18_IterOpsINS_17_ClassicAlgPolicyEE25__validate_iter_referenceB8ue170006IRNS_11__wrap_iterIPNS_4pairIiiEEEEEEvv, symObjAddr: 0x63C0, symBinAddr: 0x100006EA0, symSize: 0x10 }
  - { offsetInCU: 0x18D48, offset: 0x18D48, size: 0x8, addend: 0x0, symName: __ZNSt3__14pairIiiEC1B8ue170006IRiiLPv0EEEOT_OT0_, symObjAddr: 0x63D0, symBinAddr: 0x100006EB0, symSize: 0x30 }
  - { offsetInCU: 0x18DA6, offset: 0x18DA6, size: 0x8, addend: 0x0, symName: __ZNSt3__14pairIiiEC2B8ue170006IRiiLPv0EEEOT_OT0_, symObjAddr: 0x6400, symBinAddr: 0x100006EE0, symSize: 0x30 }
  - { offsetInCU: 0x18E04, offset: 0x18E04, size: 0x8, addend: 0x0, symName: __ZNKSt3__16vectorINS_4pairIiiEENS_9allocatorIS2_EEE5emptyB8ue170006Ev, symObjAddr: 0x6430, symBinAddr: 0x100006F10, symSize: 0x20 }
  - { offsetInCU: 0x18E2A, offset: 0x18E2A, size: 0x8, addend: 0x0, symName: __ZNKSt3__16vectorINS_4pairIiiEENS_9allocatorIS2_EEE5frontB8ue170006Ev, symObjAddr: 0x6450, symBinAddr: 0x100006F30, symSize: 0x20 }
  - { offsetInCU: 0x18E50, offset: 0x18E50, size: 0x8, addend: 0x0, symName: __ZNSt3__110__get_pairILm0EE3getB8ue170006IiiEEOT_ONS_4pairIS3_T0_EE, symObjAddr: 0x6470, symBinAddr: 0x100006F50, symSize: 0x10 }
  - { offsetInCU: 0x18E86, offset: 0x18E86, size: 0x8, addend: 0x0, symName: __ZNSt3__110__get_pairILm1EE3getB8ue170006IiiEEOT0_ONS_4pairIT_S3_EE, symObjAddr: 0x6480, symBinAddr: 0x100006F60, symSize: 0x20 }
  - { offsetInCU: 0x18EBC, offset: 0x18EBC, size: 0x8, addend: 0x0, symName: __ZNSt3__16vectorINS_4pairIiiEENS_9allocatorIS2_EEE8pop_backEv, symObjAddr: 0x64F0, symBinAddr: 0x100006FD0, symSize: 0x30 }
  - { offsetInCU: 0x18EE4, offset: 0x18EE4, size: 0x8, addend: 0x0, symName: __ZNSt3__16vectorINS_4pairIiiEENS_9allocatorIS2_EEE17__destruct_at_endB8ue170006EPS2_, symObjAddr: 0x67C0, symBinAddr: 0x1000072A0, symSize: 0x50 }
  - { offsetInCU: 0x18F28, offset: 0x18F28, size: 0x8, addend: 0x0, symName: __ZNKSt3__16vectorINS_4pairIiiEENS_9allocatorIS2_EEE17__annotate_shrinkB8ue170006Em, symObjAddr: 0x6810, symBinAddr: 0x1000072F0, symSize: 0xA0 }
  - { offsetInCU: 0x18F5D, offset: 0x18F5D, size: 0x8, addend: 0x0, symName: __ZNSt3__16vectorIbNS_9allocatorIbEEE10__make_refB8ue170006Em, symObjAddr: 0x68B0, symBinAddr: 0x100007390, symSize: 0x50 }
  - { offsetInCU: 0x18F92, offset: 0x18F92, size: 0x8, addend: 0x0, symName: __ZNSt3__115__bit_referenceINS_6vectorIbNS_9allocatorIbEEEELb1EEC1B8ue170006EPmm, symObjAddr: 0x6900, symBinAddr: 0x1000073E0, symSize: 0x30 }
  - { offsetInCU: 0x18FD8, offset: 0x18FD8, size: 0x8, addend: 0x0, symName: __ZNSt3__115__bit_referenceINS_6vectorIbNS_9allocatorIbEEEELb1EEC2B8ue170006EPmm, symObjAddr: 0x6930, symBinAddr: 0x100007410, symSize: 0x30 }
  - { offsetInCU: 0x1901E, offset: 0x1901E, size: 0x8, addend: 0x0, symName: __ZNSt3__16vectorINS_4pairIiiEENS_9allocatorIS2_EEE11__make_iterB8ue170006EPS2_, symObjAddr: 0x6960, symBinAddr: 0x100007440, symSize: 0x30 }
  - { offsetInCU: 0x19053, offset: 0x19053, size: 0x8, addend: 0x0, symName: __ZNSt3__111__wrap_iterIPNS_4pairIiiEEEC1B8ue170006ES3_, symObjAddr: 0x6990, symBinAddr: 0x100007470, symSize: 0x30 }
  - { offsetInCU: 0x1908B, offset: 0x1908B, size: 0x8, addend: 0x0, symName: __ZNSt3__111__wrap_iterIPNS_4pairIiiEEEC2B8ue170006ES3_, symObjAddr: 0x69C0, symBinAddr: 0x1000074A0, symSize: 0x20 }
  - { offsetInCU: 0x190C3, offset: 0x190C3, size: 0x8, addend: 0x0, symName: __ZNSt3__16vectorIbNS_9allocatorIbEEED2B8ue170006Ev, symObjAddr: 0x69E0, symBinAddr: 0x1000074C0, symSize: 0x40 }
  - { offsetInCU: 0x190ED, offset: 0x190ED, size: 0x8, addend: 0x0, symName: __ZNSt3__16vectorIbNS_9allocatorIbEEE16__destroy_vectorC1B8ue170006ERS3_, symObjAddr: 0x6A20, symBinAddr: 0x100007500, symSize: 0x30 }
  - { offsetInCU: 0x19126, offset: 0x19126, size: 0x8, addend: 0x0, symName: __ZNSt3__16vectorIbNS_9allocatorIbEEE16__destroy_vectorclB8ue170006Ev, symObjAddr: 0x6A50, symBinAddr: 0x100007530, symSize: 0x60 }
  - { offsetInCU: 0x1914C, offset: 0x1914C, size: 0x8, addend: 0x0, symName: __ZNSt3__16vectorIbNS_9allocatorIbEEE16__destroy_vectorC2B8ue170006ERS3_, symObjAddr: 0x6AB0, symBinAddr: 0x100007590, symSize: 0x20 }
  - { offsetInCU: 0x19185, offset: 0x19185, size: 0x8, addend: 0x0, symName: __ZNSt3__116allocator_traitsINS_9allocatorImEEE10deallocateB8ue170006ERS2_Pmm, symObjAddr: 0x6AD0, symBinAddr: 0x1000075B0, symSize: 0x30 }
  - { offsetInCU: 0x191C7, offset: 0x191C7, size: 0x8, addend: 0x0, symName: __ZNSt3__19allocatorImE10deallocateB8ue170006EPmm, symObjAddr: 0x6B00, symBinAddr: 0x1000075E0, symSize: 0x40 }
  - { offsetInCU: 0x19209, offset: 0x19209, size: 0x8, addend: 0x0, symName: __ZNSt3__114priority_queueINS_4pairIiiEENS_6vectorIS2_NS_9allocatorIS2_EEEEZN4sssp8dijkstraEiEUlS2_S2_E_ED2Ev, symObjAddr: 0x6B40, symBinAddr: 0x100007620, symSize: 0x20 }
  - { offsetInCU: 0x19236, offset: 0x19236, size: 0x8, addend: 0x0, symName: __ZN21NoPathExistsExceptionC2Ev, symObjAddr: 0x6B60, symBinAddr: 0x100007640, symSize: 0x40 }
  - { offsetInCU: 0x19260, offset: 0x19260, size: 0x8, addend: 0x0, symName: __ZN21NoPathExistsExceptionD0Ev, symObjAddr: 0x6BA0, symBinAddr: 0x100007680, symSize: 0x30 }
  - { offsetInCU: 0x1928C, offset: 0x1928C, size: 0x8, addend: 0x0, symName: __ZN21NoPathExistsExceptionD2Ev, symObjAddr: 0x6BD0, symBinAddr: 0x1000076B0, symSize: 0x20 }
  - { offsetInCU: 0x192B8, offset: 0x192B8, size: 0x8, addend: 0x0, symName: __ZNSt3__16vectorIiNS_9allocatorIiEEEC2B8ue170006Ev, symObjAddr: 0x6BF0, symBinAddr: 0x1000076D0, symSize: 0x50 }
  - { offsetInCU: 0x192E2, offset: 0x192E2, size: 0x8, addend: 0x0, symName: __ZNSt3__16vectorIiNS_9allocatorIiEEE22__construct_one_at_endB8ue170006IJRKiEEEvDpOT_, symObjAddr: 0x6C40, symBinAddr: 0x100007720, symSize: 0x90 }
  - { offsetInCU: 0x19331, offset: 0x19331, size: 0x8, addend: 0x0, symName: __ZNSt3__16vectorIiNS_9allocatorIiEEE21__push_back_slow_pathIRKiEEvOT_, symObjAddr: 0x6CD0, symBinAddr: 0x1000077B0, symSize: 0xD0 }
  - { offsetInCU: 0x1938F, offset: 0x1938F, size: 0x8, addend: 0x0, symName: __ZNKSt3__16vectorIiNS_9allocatorIiEEE11__recommendB8ue170006Em, symObjAddr: 0x6DA0, symBinAddr: 0x100007880, symSize: 0xA0 }
  - { offsetInCU: 0x193E4, offset: 0x193E4, size: 0x8, addend: 0x0, symName: __ZNSt3__114__split_bufferIiRNS_9allocatorIiEEEC1EmmS3_, symObjAddr: 0x6E40, symBinAddr: 0x100007920, symSize: 0x40 }
  - { offsetInCU: 0x1943A, offset: 0x1943A, size: 0x8, addend: 0x0, symName: __ZNSt3__114__split_bufferIiRNS_9allocatorIiEEED1Ev, symObjAddr: 0x6FA0, symBinAddr: 0x100007A80, symSize: 0x20 }
  - { offsetInCU: 0x19466, offset: 0x19466, size: 0x8, addend: 0x0, symName: __ZNSt3__114__split_bufferIiRNS_9allocatorIiEEEC2EmmS3_, symObjAddr: 0x7040, symBinAddr: 0x100007B20, symSize: 0xD0 }
  - { offsetInCU: 0x194D9, offset: 0x194D9, size: 0x8, addend: 0x0, symName: __ZNSt3__117__compressed_pairIPiRNS_9allocatorIiEEEC1B8ue170006IDnS4_EEOT_OT0_, symObjAddr: 0x7110, symBinAddr: 0x100007BF0, symSize: 0x30 }
  - { offsetInCU: 0x19531, offset: 0x19531, size: 0x8, addend: 0x0, symName: __ZNSt3__114__split_bufferIiRNS_9allocatorIiEEE7__allocB8ue170006Ev, symObjAddr: 0x7140, symBinAddr: 0x100007C20, symSize: 0x20 }
  - { offsetInCU: 0x19557, offset: 0x19557, size: 0x8, addend: 0x0, symName: __ZNSt3__114__split_bufferIiRNS_9allocatorIiEEE9__end_capB8ue170006Ev, symObjAddr: 0x7160, symBinAddr: 0x100007C40, symSize: 0x20 }
  - { offsetInCU: 0x1957D, offset: 0x1957D, size: 0x8, addend: 0x0, symName: __ZNSt3__117__compressed_pairIPiRNS_9allocatorIiEEEC2B8ue170006IDnS4_EEOT_OT0_, symObjAddr: 0x7180, symBinAddr: 0x100007C60, symSize: 0x40 }
  - { offsetInCU: 0x195D5, offset: 0x195D5, size: 0x8, addend: 0x0, symName: __ZNSt3__122__compressed_pair_elemIRNS_9allocatorIiEELi1ELb0EEC2B8ue170006IS3_vEEOT_, symObjAddr: 0x71C0, symBinAddr: 0x100007CA0, symSize: 0x20 }
  - { offsetInCU: 0x19617, offset: 0x19617, size: 0x8, addend: 0x0, symName: __ZNSt3__117__compressed_pairIPiRNS_9allocatorIiEEE6secondB8ue170006Ev, symObjAddr: 0x71E0, symBinAddr: 0x100007CC0, symSize: 0x20 }
  - { offsetInCU: 0x1963D, offset: 0x1963D, size: 0x8, addend: 0x0, symName: __ZNSt3__122__compressed_pair_elemIRNS_9allocatorIiEELi1ELb0EE5__getB8ue170006Ev, symObjAddr: 0x7200, symBinAddr: 0x100007CE0, symSize: 0x20 }
  - { offsetInCU: 0x19663, offset: 0x19663, size: 0x8, addend: 0x0, symName: __ZNSt3__117__compressed_pairIPiRNS_9allocatorIiEEE5firstB8ue170006Ev, symObjAddr: 0x7220, symBinAddr: 0x100007D00, symSize: 0x20 }
  - { offsetInCU: 0x19689, offset: 0x19689, size: 0x8, addend: 0x0, symName: __ZNSt3__116reverse_iteratorIPiEC1B8ue170006ES1_, symObjAddr: 0x72B0, symBinAddr: 0x100007D90, symSize: 0x30 }
  - { offsetInCU: 0x196C1, offset: 0x196C1, size: 0x8, addend: 0x0, symName: __ZNKSt3__116reverse_iteratorIPiE4baseB8ue170006Ev, symObjAddr: 0x72E0, symBinAddr: 0x100007DC0, symSize: 0x20 }
  - { offsetInCU: 0x1970A, offset: 0x1970A, size: 0x8, addend: 0x0, symName: __ZNKSt3__111__move_loopINS_17_ClassicAlgPolicyEEclB8ue170006INS_16reverse_iteratorIPiEES6_S6_EENS_4pairIT_T1_EES8_T0_S9_, symObjAddr: 0x7780, symBinAddr: 0x100008260, symSize: 0xA0 }
  - { offsetInCU: 0x19775, offset: 0x19775, size: 0x8, addend: 0x0, symName: __ZNSt3__18_IterOpsINS_17_ClassicAlgPolicyEE11__iter_moveB8ue170006IRNS_16reverse_iteratorIPiEEEENS_9enable_ifIXsr12is_referenceIDTdeclsr3stdE7declvalIRT_EEEEE5valueEDTclsr3stdE4movedeclsr3stdE7declvalISA_EEEEE4typeEOS9_, symObjAddr: 0x79A0, symBinAddr: 0x100008480, symSize: 0x20 }
  - { offsetInCU: 0x197A1, offset: 0x197A1, size: 0x8, addend: 0x0, symName: __ZNKSt3__116reverse_iteratorIPiEdeB8ue170006Ev, symObjAddr: 0x79C0, symBinAddr: 0x1000084A0, symSize: 0x30 }
  - { offsetInCU: 0x197D5, offset: 0x197D5, size: 0x8, addend: 0x0, symName: __ZNSt3__116reverse_iteratorIPiEppB8ue170006Ev, symObjAddr: 0x79F0, symBinAddr: 0x1000084D0, symSize: 0x20 }
  - { offsetInCU: 0x197FB, offset: 0x197FB, size: 0x8, addend: 0x0, symName: __ZNSt3__18_IterOpsINS_17_ClassicAlgPolicyEE25__validate_iter_referenceB8ue170006IRNS_16reverse_iteratorIPiEEEEvv, symObjAddr: 0x7A10, symBinAddr: 0x1000084F0, symSize: 0x10 }
  - { offsetInCU: 0x19819, offset: 0x19819, size: 0x8, addend: 0x0, symName: __ZNSt3__118__unwrap_iter_implINS_16reverse_iteratorIPiEELb0EE8__unwrapB8ue170006ES3_, symObjAddr: 0x7A20, symBinAddr: 0x100008500, symSize: 0x20 }
  - { offsetInCU: 0x19841, offset: 0x19841, size: 0x8, addend: 0x0, symName: __ZNSt3__14pairINS_16reverse_iteratorIPiEES3_EC1B8ue170006IS3_S3_LPv0EEEOT_OT0_, symObjAddr: 0x7A40, symBinAddr: 0x100008520, symSize: 0x30 }
  - { offsetInCU: 0x1989F, offset: 0x1989F, size: 0x8, addend: 0x0, symName: __ZNSt3__14pairINS_16reverse_iteratorIPiEES3_EC2B8ue170006IS3_S3_LPv0EEEOT_OT0_, symObjAddr: 0x7A70, symBinAddr: 0x100008550, symSize: 0x40 }
  - { offsetInCU: 0x198FD, offset: 0x198FD, size: 0x8, addend: 0x0, symName: __ZNSt3__118__unwrap_iter_implINS_16reverse_iteratorIPiEELb0EE8__rewrapB8ue170006ES3_S3_, symObjAddr: 0x7AB0, symBinAddr: 0x100008590, symSize: 0x30 }
  - { offsetInCU: 0x1992A, offset: 0x1992A, size: 0x8, addend: 0x0, symName: __ZNSt3__116reverse_iteratorIPiEC2B8ue170006ES1_, symObjAddr: 0x7AE0, symBinAddr: 0x1000085C0, symSize: 0x30 }
  - { offsetInCU: 0x19962, offset: 0x19962, size: 0x8, addend: 0x0, symName: __ZNSt3__114__split_bufferIiRNS_9allocatorIiEEED2Ev, symObjAddr: 0x7B10, symBinAddr: 0x1000085F0, symSize: 0x70 }
  - { offsetInCU: 0x1998E, offset: 0x1998E, size: 0x8, addend: 0x0, symName: __ZNSt3__114__split_bufferIiRNS_9allocatorIiEEE5clearB8ue170006Ev, symObjAddr: 0x7B80, symBinAddr: 0x100008660, symSize: 0x20 }
  - { offsetInCU: 0x199B4, offset: 0x199B4, size: 0x8, addend: 0x0, symName: __ZNKSt3__114__split_bufferIiRNS_9allocatorIiEEE8capacityB8ue170006Ev, symObjAddr: 0x7BA0, symBinAddr: 0x100008680, symSize: 0x30 }
  - { offsetInCU: 0x199DA, offset: 0x199DA, size: 0x8, addend: 0x0, symName: __ZNSt3__114__split_bufferIiRNS_9allocatorIiEEE17__destruct_at_endB8ue170006EPi, symObjAddr: 0x7BD0, symBinAddr: 0x1000086B0, symSize: 0x30 }
  - { offsetInCU: 0x19A0E, offset: 0x19A0E, size: 0x8, addend: 0x0, symName: __ZNSt3__114__split_bufferIiRNS_9allocatorIiEEE17__destruct_at_endB8ue170006EPiNS_17integral_constantIbLb0EEE, symObjAddr: 0x7C00, symBinAddr: 0x1000086E0, symSize: 0x80 }
  - { offsetInCU: 0x19A4E, offset: 0x19A4E, size: 0x8, addend: 0x0, symName: __ZNKSt3__114__split_bufferIiRNS_9allocatorIiEEE9__end_capB8ue170006Ev, symObjAddr: 0x7C80, symBinAddr: 0x100008760, symSize: 0x20 }
  - { offsetInCU: 0x19A74, offset: 0x19A74, size: 0x8, addend: 0x0, symName: __ZNKSt3__117__compressed_pairIPiRNS_9allocatorIiEEE5firstB8ue170006Ev, symObjAddr: 0x7CA0, symBinAddr: 0x100008780, symSize: 0x20 }
  - { offsetInCU: 0x19A9A, offset: 0x19A9A, size: 0x8, addend: 0x0, symName: __ZNSt3__111__wrap_iterIPiEmmB8ue170006Ev, symObjAddr: 0x7DC0, symBinAddr: 0x1000088A0, symSize: 0x20 }
  - { offsetInCU: 0x19AC0, offset: 0x19AC0, size: 0x8, addend: 0x0, symName: __ZNSt3__18_IterOpsINS_17_ClassicAlgPolicyEE9iter_swapB8ue170006IRNS_11__wrap_iterIPiEES7_EEvOT_OT0_, symObjAddr: 0x7DE0, symBinAddr: 0x1000088C0, symSize: 0x40 }
  - { offsetInCU: 0x19B03, offset: 0x19B03, size: 0x8, addend: 0x0, symName: __ZNKSt3__111__wrap_iterIPiE4baseB8ue170006Ev, symObjAddr: 0x7E20, symBinAddr: 0x100008900, symSize: 0x20 }
  - { offsetInCU: 0x19B29, offset: 0x19B29, size: 0x8, addend: 0x0, symName: __ZNSt3__14pairIiNS_6vectorIiNS_9allocatorIiEEEEEC1B8ue170006IRiRS4_LPv0EEEOT_OT0_, symObjAddr: 0x7EB0, symBinAddr: 0x100008990, symSize: 0x30 }
  - { offsetInCU: 0x19B87, offset: 0x19B87, size: 0x8, addend: 0x0, symName: __ZNSt3__14pairIiNS_6vectorIiNS_9allocatorIiEEEEEC2B8ue170006IRiRS4_LPv0EEEOT_OT0_, symObjAddr: 0x7EE0, symBinAddr: 0x1000089C0, symSize: 0x40 }
  - { offsetInCU: 0x19BE5, offset: 0x19BE5, size: 0x8, addend: 0x0, symName: __ZNSt3__16vectorIiNS_9allocatorIiEEEC1ERKS3_, symObjAddr: 0x7F20, symBinAddr: 0x100008A00, symSize: 0x30 }
  - { offsetInCU: 0x19C20, offset: 0x19C20, size: 0x8, addend: 0x0, symName: __ZNSt3__16vectorIiNS_9allocatorIiEEEC2ERKS3_, symObjAddr: 0x7F50, symBinAddr: 0x100008A30, symSize: 0xA0 }
  - { offsetInCU: 0x19C5B, offset: 0x19C5B, size: 0x8, addend: 0x0, symName: __ZNSt3__116allocator_traitsINS_9allocatorIiEEE37select_on_container_copy_constructionB8ue170006IS2_vvEES2_RKS2_, symObjAddr: 0x7FF0, symBinAddr: 0x100008AD0, symSize: 0x10 }
  - { offsetInCU: 0x19C8F, offset: 0x19C8F, size: 0x8, addend: 0x0, symName: __ZNSt3__117__compressed_pairIPiNS_9allocatorIiEEEC1B8ue170006IDnS3_EEOT_OT0_, symObjAddr: 0x8000, symBinAddr: 0x100008AE0, symSize: 0x30 }
  - { offsetInCU: 0x19CE7, offset: 0x19CE7, size: 0x8, addend: 0x0, symName: __ZNSt3__16vectorIiNS_9allocatorIiEEE16__init_with_sizeB8ue170006IPiS5_EEvT_T0_m, symObjAddr: 0x8030, symBinAddr: 0x100008B10, symSize: 0xB0 }
  - { offsetInCU: 0x19D5B, offset: 0x19D5B, size: 0x8, addend: 0x0, symName: __ZNSt3__117__compressed_pairIPiNS_9allocatorIiEEEC2B8ue170006IDnS3_EEOT_OT0_, symObjAddr: 0x80E0, symBinAddr: 0x100008BC0, symSize: 0x40 }
  - { offsetInCU: 0x19DB3, offset: 0x19DB3, size: 0x8, addend: 0x0, symName: __ZNSt3__122__compressed_pair_elemINS_9allocatorIiEELi1ELb1EEC2B8ue170006IS2_vEEOT_, symObjAddr: 0x8120, symBinAddr: 0x100008C00, symSize: 0x10 }
  - { offsetInCU: 0x19DF5, offset: 0x19DF5, size: 0x8, addend: 0x0, symName: __ZNSt3__16vectorIiNS_9allocatorIiEEE18__construct_at_endIPiS5_EEvT_T0_m, symObjAddr: 0x8130, symBinAddr: 0x100008C10, symSize: 0x90 }
  - { offsetInCU: 0x19E89, offset: 0x19E89, size: 0x8, addend: 0x0, symName: __ZNSt3__14pairIPiS1_EC1B8ue170006IS1_S1_LPv0EEEOT_OT0_, symObjAddr: 0x8350, symBinAddr: 0x100008E30, symSize: 0x30 }
  - { offsetInCU: 0x19EE7, offset: 0x19EE7, size: 0x8, addend: 0x0, symName: __ZNSt3__14pairIPiS1_EC2B8ue170006IS1_S1_LPv0EEEOT_OT0_, symObjAddr: 0x8380, symBinAddr: 0x100008E60, symSize: 0x30 }
  - { offsetInCU: 0x19F4F, offset: 0x19F4F, size: 0x8, addend: 0x0, symName: __ZNKSt3__114__copy_trivialclB8ue170006IiiLi0EEENS_4pairIPT_PT0_EES4_S4_S6_, symObjAddr: 0x8520, symBinAddr: 0x100009000, symSize: 0x40 }
  - { offsetInCU: 0x19FB7, offset: 0x19FB7, size: 0x8, addend: 0x0, symName: __ZNSt3__14pairIPiS1_EC1B8ue170006IRS1_S1_LPv0EEEOT_OT0_, symObjAddr: 0x8680, symBinAddr: 0x100009160, symSize: 0x30 }
  - { offsetInCU: 0x1A015, offset: 0x1A015, size: 0x8, addend: 0x0, symName: __ZNSt3__14pairIPiS1_EC2B8ue170006IRS1_S1_LPv0EEEOT_OT0_, symObjAddr: 0x86B0, symBinAddr: 0x100009190, symSize: 0x30 }
  - { offsetInCU: 0x1A073, offset: 0x1A073, size: 0x8, addend: 0x0, symName: __ZNSt3__118__unwrap_iter_implIPiLb1EE8__unwrapB8ue170006ES1_, symObjAddr: 0x86E0, symBinAddr: 0x1000091C0, symSize: 0x20 }
  - { offsetInCU: 0x1A096, offset: 0x1A096, size: 0x8, addend: 0x0, symName: __ZNSt3__118__unwrap_iter_implIPiLb1EE8__rewrapB8ue170006ES1_S1_, symObjAddr: 0x8700, symBinAddr: 0x1000091E0, symSize: 0x50 }
  - { offsetInCU: 0x1A0C7, offset: 0x1A0C7, size: 0x8, addend: 0x0, symName: __ZNSt3__110__get_pairILm0EE3getB8ue170006IiNS_6vectorIiNS_9allocatorIiEEEEEEOT_ONS_4pairIS7_T0_EE, symObjAddr: 0x8750, symBinAddr: 0x100009230, symSize: 0x10 }
  - { offsetInCU: 0x1A0FD, offset: 0x1A0FD, size: 0x8, addend: 0x0, symName: __ZNSt3__110__get_pairILm1EE3getB8ue170006IiNS_6vectorIiNS_9allocatorIiEEEEEEOT0_ONS_4pairIT_S7_EE, symObjAddr: 0x8760, symBinAddr: 0x100009240, symSize: 0x20 }
  - { offsetInCU: 0x1A133, offset: 0x1A133, size: 0x8, addend: 0x0, symName: __ZNSt3__14pairIiNS_6vectorIiNS_9allocatorIiEEEEED2Ev, symObjAddr: 0x87C0, symBinAddr: 0x1000092A0, symSize: 0x20 }
  - { offsetInCU: 0x1A15F, offset: 0x1A15F, size: 0x8, addend: 0x0, symName: __ZN4ssspD2Ev, symObjAddr: 0x87E0, symBinAddr: 0x1000092C0, symSize: 0x40 }
  - { offsetInCU: 0x1A18B, offset: 0x1A18B, size: 0x8, addend: 0x0, symName: __ZNSt3__16vectorINS0_INS_4pairIiiEENS_9allocatorIS2_EEEENS3_IS5_EEED2B8ue170006Ev, symObjAddr: 0x8820, symBinAddr: 0x100009300, symSize: 0x40 }
  - { offsetInCU: 0x1A1B5, offset: 0x1A1B5, size: 0x8, addend: 0x0, symName: __ZNSt3__16vectorIiNS_9allocatorIiEEE11__make_iterB8ue170006EPi, symObjAddr: 0x8860, symBinAddr: 0x100009340, symSize: 0x30 }
  - { offsetInCU: 0x1A1EA, offset: 0x1A1EA, size: 0x8, addend: 0x0, symName: __ZNSt3__111__wrap_iterIPiEC1B8ue170006ES1_, symObjAddr: 0x8890, symBinAddr: 0x100009370, symSize: 0x30 }
  - { offsetInCU: 0x1A222, offset: 0x1A222, size: 0x8, addend: 0x0, symName: __ZNSt3__111__wrap_iterIPiEC2B8ue170006ES1_, symObjAddr: 0x88C0, symBinAddr: 0x1000093A0, symSize: 0x20 }
  - { offsetInCU: 0x1A25A, offset: 0x1A25A, size: 0x8, addend: 0x0, symName: __ZNSt3__16vectorINS0_INS_4pairIiiEENS_9allocatorIS2_EEEENS3_IS5_EEEC2Em, symObjAddr: 0x88E0, symBinAddr: 0x1000093C0, symSize: 0xD0 }
  - { offsetInCU: 0x1A2AA, offset: 0x1A2AA, size: 0x8, addend: 0x0, symName: __ZNSt3__117__compressed_pairIPNS_6vectorINS_4pairIiiEENS_9allocatorIS3_EEEENS4_IS6_EEEC1B8ue170006IDnNS_18__default_init_tagEEEOT_OT0_, symObjAddr: 0x89B0, symBinAddr: 0x100009490, symSize: 0x30 }
  - { offsetInCU: 0x1A302, offset: 0x1A302, size: 0x8, addend: 0x0, symName: __ZNSt3__16vectorINS0_INS_4pairIiiEENS_9allocatorIS2_EEEENS3_IS5_EEE18__construct_at_endEm, symObjAddr: 0x89E0, symBinAddr: 0x1000094C0, symSize: 0xC0 }
  - { offsetInCU: 0x1A374, offset: 0x1A374, size: 0x8, addend: 0x0, symName: __ZNSt3__117__compressed_pairIPNS_6vectorINS_4pairIiiEENS_9allocatorIS3_EEEENS4_IS6_EEEC2B8ue170006IDnNS_18__default_init_tagEEEOT_OT0_, symObjAddr: 0x8AA0, symBinAddr: 0x100009580, symSize: 0x40 }
  - { offsetInCU: 0x1A3CC, offset: 0x1A3CC, size: 0x8, addend: 0x0, symName: __ZNSt3__122__compressed_pair_elemINS_9allocatorINS_6vectorINS_4pairIiiEENS1_IS4_EEEEEELi1ELb1EEC2B8ue170006ENS_18__default_init_tagE, symObjAddr: 0x8AE0, symBinAddr: 0x1000095C0, symSize: 0x20 }
  - { offsetInCU: 0x1A400, offset: 0x1A400, size: 0x8, addend: 0x0, symName: __ZNSt3__19allocatorINS_6vectorINS_4pairIiiEENS0_IS3_EEEEEC2B8ue170006Ev, symObjAddr: 0x8B00, symBinAddr: 0x1000095E0, symSize: 0x20 }
  - { offsetInCU: 0x1A42A, offset: 0x1A42A, size: 0x8, addend: 0x0, symName: __ZNSt3__116__non_trivial_ifILb1ENS_9allocatorINS_6vectorINS_4pairIiiEENS1_IS4_EEEEEEEC2B8ue170006Ev, symObjAddr: 0x8B20, symBinAddr: 0x100009600, symSize: 0x10 }
  - { offsetInCU: 0x1A454, offset: 0x1A454, size: 0x8, addend: 0x0, symName: __ZNSt3__116allocator_traitsINS_9allocatorINS_6vectorINS_4pairIiiEENS1_IS4_EEEEEEE9constructB8ue170006IS6_JEvEEvRS7_PT_DpOT0_, symObjAddr: 0x8B30, symBinAddr: 0x100009610, symSize: 0x30 }
  - { offsetInCU: 0x1A496, offset: 0x1A496, size: 0x8, addend: 0x0, symName: __ZNSt3__19allocatorINS_6vectorINS_4pairIiiEENS0_IS3_EEEEE9constructB8ue170006IS5_JEEEvPT_DpOT0_, symObjAddr: 0x8B60, symBinAddr: 0x100009640, symSize: 0x20 }
  - { offsetInCU: 0x1A4D8, offset: 0x1A4D8, size: 0x8, addend: 0x0, symName: __ZNSt3__16vectorINS_5tupleIJiiiEEENS_9allocatorIS2_EEEC2B8ue170006ESt16initializer_listIS2_E, symObjAddr: 0x8B80, symBinAddr: 0x100009660, symSize: 0x110 }
  - { offsetInCU: 0x1A528, offset: 0x1A528, size: 0x8, addend: 0x0, symName: __ZNSt3__117__compressed_pairIPNS_5tupleIJiiiEEENS_9allocatorIS2_EEEC1B8ue170006IDnNS_18__default_init_tagEEEOT_OT0_, symObjAddr: 0x8C90, symBinAddr: 0x100009770, symSize: 0x30 }
  - { offsetInCU: 0x1A580, offset: 0x1A580, size: 0x8, addend: 0x0, symName: __ZNSt3__16vectorINS_5tupleIJiiiEEENS_9allocatorIS2_EEE16__destroy_vectorC1B8ue170006ERS5_, symObjAddr: 0x8D00, symBinAddr: 0x1000097E0, symSize: 0x30 }
  - { offsetInCU: 0x1A5B9, offset: 0x1A5B9, size: 0x8, addend: 0x0, symName: __ZNKSt16initializer_listINSt3__15tupleIJiiiEEEE4sizeB8ue170006Ev, symObjAddr: 0x8D30, symBinAddr: 0x100009810, symSize: 0x20 }
  - { offsetInCU: 0x1A5DF, offset: 0x1A5DF, size: 0x8, addend: 0x0, symName: __ZNSt3__16vectorINS_5tupleIJiiiEEENS_9allocatorIS2_EEE11__vallocateB8ue170006Em, symObjAddr: 0x8D50, symBinAddr: 0x100009830, symSize: 0xA0 }
  - { offsetInCU: 0x1A623, offset: 0x1A623, size: 0x8, addend: 0x0, symName: __ZNSt3__16vectorINS_5tupleIJiiiEEENS_9allocatorIS2_EEE18__construct_at_endIPKS2_S8_EEvT_T0_m, symObjAddr: 0x8DF0, symBinAddr: 0x1000098D0, symSize: 0x90 }
  - { offsetInCU: 0x1A699, offset: 0x1A699, size: 0x8, addend: 0x0, symName: __ZNKSt16initializer_listINSt3__15tupleIJiiiEEEE5beginB8ue170006Ev, symObjAddr: 0x8E80, symBinAddr: 0x100009960, symSize: 0x20 }
  - { offsetInCU: 0x1A6BF, offset: 0x1A6BF, size: 0x8, addend: 0x0, symName: __ZNKSt16initializer_listINSt3__15tupleIJiiiEEEE3endB8ue170006Ev, symObjAddr: 0x8EA0, symBinAddr: 0x100009980, symSize: 0x20 }
  - { offsetInCU: 0x1A6E5, offset: 0x1A6E5, size: 0x8, addend: 0x0, symName: __ZNSt3__128__exception_guard_exceptionsINS_6vectorINS_5tupleIJiiiEEENS_9allocatorIS3_EEE16__destroy_vectorEE10__completeB8ue170006Ev, symObjAddr: 0x8EC0, symBinAddr: 0x1000099A0, symSize: 0x20 }
  - { offsetInCU: 0x1A70B, offset: 0x1A70B, size: 0x8, addend: 0x0, symName: __ZNSt3__128__exception_guard_exceptionsINS_6vectorINS_5tupleIJiiiEEENS_9allocatorIS3_EEE16__destroy_vectorEED1B8ue170006Ev, symObjAddr: 0x8EE0, symBinAddr: 0x1000099C0, symSize: 0x20 }
  - { offsetInCU: 0x1A735, offset: 0x1A735, size: 0x8, addend: 0x0, symName: __ZNSt3__117__compressed_pairIPNS_5tupleIJiiiEEENS_9allocatorIS2_EEEC2B8ue170006IDnNS_18__default_init_tagEEEOT_OT0_, symObjAddr: 0x8F00, symBinAddr: 0x1000099E0, symSize: 0x40 }
  - { offsetInCU: 0x1A78D, offset: 0x1A78D, size: 0x8, addend: 0x0, symName: __ZNSt3__122__compressed_pair_elemIPNS_5tupleIJiiiEEELi0ELb0EEC2B8ue170006IDnvEEOT_, symObjAddr: 0x8F40, symBinAddr: 0x100009A20, symSize: 0x20 }
  - { offsetInCU: 0x1A7CF, offset: 0x1A7CF, size: 0x8, addend: 0x0, symName: __ZNSt3__122__compressed_pair_elemINS_9allocatorINS_5tupleIJiiiEEEEELi1ELb1EEC2B8ue170006ENS_18__default_init_tagE, symObjAddr: 0x8F60, symBinAddr: 0x100009A40, symSize: 0x20 }
  - { offsetInCU: 0x1A803, offset: 0x1A803, size: 0x8, addend: 0x0, symName: __ZNSt3__19allocatorINS_5tupleIJiiiEEEEC2B8ue170006Ev, symObjAddr: 0x8F80, symBinAddr: 0x100009A60, symSize: 0x20 }
  - { offsetInCU: 0x1A82D, offset: 0x1A82D, size: 0x8, addend: 0x0, symName: __ZNSt3__116__non_trivial_ifILb1ENS_9allocatorINS_5tupleIJiiiEEEEEEC2B8ue170006Ev, symObjAddr: 0x8FA0, symBinAddr: 0x100009A80, symSize: 0x10 }
  - { offsetInCU: 0x1A857, offset: 0x1A857, size: 0x8, addend: 0x0, symName: __ZNSt3__128__exception_guard_exceptionsINS_6vectorINS_5tupleIJiiiEEENS_9allocatorIS3_EEE16__destroy_vectorEEC1B8ue170006ES7_, symObjAddr: 0x8FB0, symBinAddr: 0x100009A90, symSize: 0x30 }
  - { offsetInCU: 0x1A88F, offset: 0x1A88F, size: 0x8, addend: 0x0, symName: __ZNSt3__128__exception_guard_exceptionsINS_6vectorINS_5tupleIJiiiEEENS_9allocatorIS3_EEE16__destroy_vectorEEC2B8ue170006ES7_, symObjAddr: 0x8FE0, symBinAddr: 0x100009AC0, symSize: 0x20 }
  - { offsetInCU: 0x1A8C7, offset: 0x1A8C7, size: 0x8, addend: 0x0, symName: __ZNSt3__16vectorINS_5tupleIJiiiEEENS_9allocatorIS2_EEE16__destroy_vectorC2B8ue170006ERS5_, symObjAddr: 0x9000, symBinAddr: 0x100009AE0, symSize: 0x20 }
  - { offsetInCU: 0x1A900, offset: 0x1A900, size: 0x8, addend: 0x0, symName: __ZNKSt3__16vectorINS_5tupleIJiiiEEENS_9allocatorIS2_EEE8max_sizeEv, symObjAddr: 0x9020, symBinAddr: 0x100009B00, symSize: 0x60 }
  - { offsetInCU: 0x1A928, offset: 0x1A928, size: 0x8, addend: 0x0, symName: __ZNKSt3__16vectorINS_5tupleIJiiiEEENS_9allocatorIS2_EEE20__throw_length_errorB8ue170006Ev, symObjAddr: 0x9080, symBinAddr: 0x100009B60, symSize: 0x20 }
  - { offsetInCU: 0x1A94E, offset: 0x1A94E, size: 0x8, addend: 0x0, symName: __ZNSt3__16vectorINS_5tupleIJiiiEEENS_9allocatorIS2_EEE7__allocB8ue170006Ev, symObjAddr: 0x90E0, symBinAddr: 0x100009BC0, symSize: 0x20 }
  - { offsetInCU: 0x1A974, offset: 0x1A974, size: 0x8, addend: 0x0, symName: __ZNSt3__16vectorINS_5tupleIJiiiEEENS_9allocatorIS2_EEE9__end_capB8ue170006Ev, symObjAddr: 0x9100, symBinAddr: 0x100009BE0, symSize: 0x20 }
  - { offsetInCU: 0x1A99A, offset: 0x1A99A, size: 0x8, addend: 0x0, symName: __ZNKSt3__16vectorINS_5tupleIJiiiEEENS_9allocatorIS2_EEE14__annotate_newB8ue170006Em, symObjAddr: 0x9120, symBinAddr: 0x100009C00, symSize: 0xA0 }
  - { offsetInCU: 0x1A9D9, offset: 0x1A9D9, size: 0x8, addend: 0x0, symName: __ZNSt3__116allocator_traitsINS_9allocatorINS_5tupleIJiiiEEEEEE8max_sizeB8ue170006IS4_vEEmRKS4_, symObjAddr: 0x91C0, symBinAddr: 0x100009CA0, symSize: 0x20 }
  - { offsetInCU: 0x1AA07, offset: 0x1AA07, size: 0x8, addend: 0x0, symName: __ZNKSt3__16vectorINS_5tupleIJiiiEEENS_9allocatorIS2_EEE7__allocB8ue170006Ev, symObjAddr: 0x91E0, symBinAddr: 0x100009CC0, symSize: 0x20 }
  - { offsetInCU: 0x1AA2D, offset: 0x1AA2D, size: 0x8, addend: 0x0, symName: __ZNKSt3__19allocatorINS_5tupleIJiiiEEEE8max_sizeB8ue170006Ev, symObjAddr: 0x9200, symBinAddr: 0x100009CE0, symSize: 0x20 }
  - { offsetInCU: 0x1AA53, offset: 0x1AA53, size: 0x8, addend: 0x0, symName: __ZNKSt3__117__compressed_pairIPNS_5tupleIJiiiEEENS_9allocatorIS2_EEE6secondB8ue170006Ev, symObjAddr: 0x9220, symBinAddr: 0x100009D00, symSize: 0x20 }
  - { offsetInCU: 0x1AA79, offset: 0x1AA79, size: 0x8, addend: 0x0, symName: __ZNKSt3__122__compressed_pair_elemINS_9allocatorINS_5tupleIJiiiEEEEELi1ELb1EE5__getB8ue170006Ev, symObjAddr: 0x9240, symBinAddr: 0x100009D20, symSize: 0x10 }
  - { offsetInCU: 0x1AA9F, offset: 0x1AA9F, size: 0x8, addend: 0x0, symName: __ZNSt3__19allocatorINS_5tupleIJiiiEEEE8allocateB8ue170006Em, symObjAddr: 0x9250, symBinAddr: 0x100009D30, symSize: 0x50 }
  - { offsetInCU: 0x1AAD3, offset: 0x1AAD3, size: 0x8, addend: 0x0, symName: __ZNSt3__117__compressed_pairIPNS_5tupleIJiiiEEENS_9allocatorIS2_EEE6secondB8ue170006Ev, symObjAddr: 0x92A0, symBinAddr: 0x100009D80, symSize: 0x20 }
  - { offsetInCU: 0x1AAF9, offset: 0x1AAF9, size: 0x8, addend: 0x0, symName: __ZNSt3__122__compressed_pair_elemINS_9allocatorINS_5tupleIJiiiEEEEELi1ELb1EE5__getB8ue170006Ev, symObjAddr: 0x92C0, symBinAddr: 0x100009DA0, symSize: 0x10 }
  - { offsetInCU: 0x1AB1F, offset: 0x1AB1F, size: 0x8, addend: 0x0, symName: __ZNSt3__117__compressed_pairIPNS_5tupleIJiiiEEENS_9allocatorIS2_EEE5firstB8ue170006Ev, symObjAddr: 0x92D0, symBinAddr: 0x100009DB0, symSize: 0x20 }
  - { offsetInCU: 0x1AB45, offset: 0x1AB45, size: 0x8, addend: 0x0, symName: __ZNSt3__122__compressed_pair_elemIPNS_5tupleIJiiiEEELi0ELb0EE5__getB8ue170006Ev, symObjAddr: 0x92F0, symBinAddr: 0x100009DD0, symSize: 0x10 }
  - { offsetInCU: 0x1AB6B, offset: 0x1AB6B, size: 0x8, addend: 0x0, symName: __ZNKSt3__16vectorINS_5tupleIJiiiEEENS_9allocatorIS2_EEE31__annotate_contiguous_containerB8ue170006EPKvS7_S7_S7_, symObjAddr: 0x9300, symBinAddr: 0x100009DE0, symSize: 0x20 }
  - { offsetInCU: 0x1ABBD, offset: 0x1ABBD, size: 0x8, addend: 0x0, symName: __ZNKSt3__16vectorINS_5tupleIJiiiEEENS_9allocatorIS2_EEE4dataB8ue170006Ev, symObjAddr: 0x9320, symBinAddr: 0x100009E00, symSize: 0x20 }
  - { offsetInCU: 0x1ABE3, offset: 0x1ABE3, size: 0x8, addend: 0x0, symName: __ZNKSt3__16vectorINS_5tupleIJiiiEEENS_9allocatorIS2_EEE8capacityB8ue170006Ev, symObjAddr: 0x9340, symBinAddr: 0x100009E20, symSize: 0x40 }
  - { offsetInCU: 0x1AC09, offset: 0x1AC09, size: 0x8, addend: 0x0, symName: __ZNKSt3__16vectorINS_5tupleIJiiiEEENS_9allocatorIS2_EEE9__end_capB8ue170006Ev, symObjAddr: 0x9390, symBinAddr: 0x100009E70, symSize: 0x20 }
  - { offsetInCU: 0x1AC2F, offset: 0x1AC2F, size: 0x8, addend: 0x0, symName: __ZNKSt3__117__compressed_pairIPNS_5tupleIJiiiEEENS_9allocatorIS2_EEE5firstB8ue170006Ev, symObjAddr: 0x93B0, symBinAddr: 0x100009E90, symSize: 0x20 }
  - { offsetInCU: 0x1AC55, offset: 0x1AC55, size: 0x8, addend: 0x0, symName: __ZNKSt3__122__compressed_pair_elemIPNS_5tupleIJiiiEEELi0ELb0EE5__getB8ue170006Ev, symObjAddr: 0x93D0, symBinAddr: 0x100009EB0, symSize: 0x10 }
  - { offsetInCU: 0x1AC94, offset: 0x1AC94, size: 0x8, addend: 0x0, symName: __ZNSt3__16vectorINS_5tupleIJiiiEEENS_9allocatorIS2_EEE21_ConstructTransactionC1B8ue170006ERS5_m, symObjAddr: 0x93E0, symBinAddr: 0x100009EC0, symSize: 0x30 }
  - { offsetInCU: 0x1ACDC, offset: 0x1ACDC, size: 0x8, addend: 0x0, symName: __ZNSt3__16vectorINS_5tupleIJiiiEEENS_9allocatorIS2_EEE21_ConstructTransactionD1B8ue170006Ev, symObjAddr: 0x9490, symBinAddr: 0x100009F70, symSize: 0x20 }
  - { offsetInCU: 0x1AD06, offset: 0x1AD06, size: 0x8, addend: 0x0, symName: __ZNSt3__16vectorINS_5tupleIJiiiEEENS_9allocatorIS2_EEE21_ConstructTransactionC2B8ue170006ERS5_m, symObjAddr: 0x94B0, symBinAddr: 0x100009F90, symSize: 0x40 }
  - { offsetInCU: 0x1AD6C, offset: 0x1AD6C, size: 0x8, addend: 0x0, symName: __ZNSt3__14pairIPKNS_5tupleIJiiiEEES4_EC1B8ue170006IS4_S4_LPv0EEEOT_OT0_, symObjAddr: 0x96F0, symBinAddr: 0x10000A1D0, symSize: 0x30 }
  - { offsetInCU: 0x1ADCA, offset: 0x1ADCA, size: 0x8, addend: 0x0, symName: __ZNSt3__14pairIPKNS_5tupleIJiiiEEES4_EC2B8ue170006IS4_S4_LPv0EEEOT_OT0_, symObjAddr: 0x9720, symBinAddr: 0x10000A200, symSize: 0x30 }
  - { offsetInCU: 0x1AE28, offset: 0x1AE28, size: 0x8, addend: 0x0, symName: __ZNSt3__118__unwrap_iter_implIPKNS_5tupleIJiiiEEELb1EE8__unwrapB8ue170006ES4_, symObjAddr: 0x9750, symBinAddr: 0x10000A230, symSize: 0x20 }
  - { offsetInCU: 0x1AE4B, offset: 0x1AE4B, size: 0x8, addend: 0x0, symName: __ZNSt3__129_AllocatorDestroyRangeReverseINS_9allocatorINS_5tupleIJiiiEEEEEPS3_EC1B8ue170006ERS4_RS5_S8_, symObjAddr: 0x97E0, symBinAddr: 0x10000A2C0, symSize: 0x40 }
  - { offsetInCU: 0x1AEA2, offset: 0x1AEA2, size: 0x8, addend: 0x0, symName: __ZNSt3__116allocator_traitsINS_9allocatorINS_5tupleIJiiiEEEEEE9constructB8ue170006IS3_JRKS3_EvEEvRS4_PT_DpOT0_, symObjAddr: 0x9820, symBinAddr: 0x10000A300, symSize: 0x30 }
  - { offsetInCU: 0x1AEF9, offset: 0x1AEF9, size: 0x8, addend: 0x0, symName: __ZNSt3__128__exception_guard_exceptionsINS_29_AllocatorDestroyRangeReverseINS_9allocatorINS_5tupleIJiiiEEEEEPS4_EEE10__completeB8ue170006Ev, symObjAddr: 0x9850, symBinAddr: 0x10000A330, symSize: 0x20 }
  - { offsetInCU: 0x1AF1F, offset: 0x1AF1F, size: 0x8, addend: 0x0, symName: __ZNSt3__128__exception_guard_exceptionsINS_29_AllocatorDestroyRangeReverseINS_9allocatorINS_5tupleIJiiiEEEEEPS4_EEED1B8ue170006Ev, symObjAddr: 0x9870, symBinAddr: 0x10000A350, symSize: 0x20 }
  - { offsetInCU: 0x1AF49, offset: 0x1AF49, size: 0x8, addend: 0x0, symName: __ZNSt3__128__exception_guard_exceptionsINS_29_AllocatorDestroyRangeReverseINS_9allocatorINS_5tupleIJiiiEEEEEPS4_EEEC1B8ue170006ES7_, symObjAddr: 0x9890, symBinAddr: 0x10000A370, symSize: 0x40 }
  - { offsetInCU: 0x1AF81, offset: 0x1AF81, size: 0x8, addend: 0x0, symName: __ZNSt3__128__exception_guard_exceptionsINS_29_AllocatorDestroyRangeReverseINS_9allocatorINS_5tupleIJiiiEEEEEPS4_EEEC2B8ue170006ES7_, symObjAddr: 0x98D0, symBinAddr: 0x10000A3B0, symSize: 0x30 }
  - { offsetInCU: 0x1AFB9, offset: 0x1AFB9, size: 0x8, addend: 0x0, symName: __ZNSt3__129_AllocatorDestroyRangeReverseINS_9allocatorINS_5tupleIJiiiEEEEEPS3_EC2B8ue170006ERS4_RS5_S8_, symObjAddr: 0x9900, symBinAddr: 0x10000A3E0, symSize: 0x40 }
  - { offsetInCU: 0x1B010, offset: 0x1B010, size: 0x8, addend: 0x0, symName: __ZNSt3__19allocatorINS_5tupleIJiiiEEEE9constructB8ue170006IS2_JRKS2_EEEvPT_DpOT0_, symObjAddr: 0x9940, symBinAddr: 0x10000A420, symSize: 0x30 }
  - { offsetInCU: 0x1B066, offset: 0x1B066, size: 0x8, addend: 0x0, symName: __ZNSt3__128__exception_guard_exceptionsINS_29_AllocatorDestroyRangeReverseINS_9allocatorINS_5tupleIJiiiEEEEEPS4_EEED2B8ue170006Ev, symObjAddr: 0x9970, symBinAddr: 0x10000A450, symSize: 0x40 }
  - { offsetInCU: 0x1B090, offset: 0x1B090, size: 0x8, addend: 0x0, symName: __ZNKSt3__129_AllocatorDestroyRangeReverseINS_9allocatorINS_5tupleIJiiiEEEEEPS3_EclB8ue170006Ev, symObjAddr: 0x99B0, symBinAddr: 0x10000A490, symSize: 0x60 }
  - { offsetInCU: 0x1B0B6, offset: 0x1B0B6, size: 0x8, addend: 0x0, symName: __ZNSt3__116reverse_iteratorIPNS_5tupleIJiiiEEEEC1B8ue170006ES3_, symObjAddr: 0x9A80, symBinAddr: 0x10000A560, symSize: 0x30 }
  - { offsetInCU: 0x1B0EE, offset: 0x1B0EE, size: 0x8, addend: 0x0, symName: __ZNSt3__116allocator_traitsINS_9allocatorINS_5tupleIJiiiEEEEEE7destroyB8ue170006IS3_vEEvRS4_PT_, symObjAddr: 0x9AF0, symBinAddr: 0x10000A5D0, symSize: 0x30 }
  - { offsetInCU: 0x1B12B, offset: 0x1B12B, size: 0x8, addend: 0x0, symName: __ZNSt3__116reverse_iteratorIPNS_5tupleIJiiiEEEEppB8ue170006Ev, symObjAddr: 0x9B40, symBinAddr: 0x10000A620, symSize: 0x20 }
  - { offsetInCU: 0x1B151, offset: 0x1B151, size: 0x8, addend: 0x0, symName: __ZNKSt3__116reverse_iteratorIPNS_5tupleIJiiiEEEE4baseB8ue170006Ev, symObjAddr: 0x9B60, symBinAddr: 0x10000A640, symSize: 0x20 }
  - { offsetInCU: 0x1B177, offset: 0x1B177, size: 0x8, addend: 0x0, symName: __ZNSt3__19allocatorINS_5tupleIJiiiEEEE7destroyB8ue170006EPS2_, symObjAddr: 0x9B80, symBinAddr: 0x10000A660, symSize: 0x10 }
  - { offsetInCU: 0x1B1B0, offset: 0x1B1B0, size: 0x8, addend: 0x0, symName: __ZNSt3__119__to_address_helperINS_16reverse_iteratorIPNS_5tupleIJiiiEEEEEvE6__callB8ue170006ERKS5_, symObjAddr: 0x9B90, symBinAddr: 0x10000A670, symSize: 0x40 }
  - { offsetInCU: 0x1B1D3, offset: 0x1B1D3, size: 0x8, addend: 0x0, symName: __ZNKSt3__116reverse_iteratorIPNS_5tupleIJiiiEEEEptB8ue170006Ev, symObjAddr: 0x9BD0, symBinAddr: 0x10000A6B0, symSize: 0x20 }
  - { offsetInCU: 0x1B1F9, offset: 0x1B1F9, size: 0x8, addend: 0x0, symName: __ZNKSt3__116reverse_iteratorIPNS_5tupleIJiiiEEEEdeB8ue170006Ev, symObjAddr: 0x9BF0, symBinAddr: 0x10000A6D0, symSize: 0x30 }
  - { offsetInCU: 0x1B22D, offset: 0x1B22D, size: 0x8, addend: 0x0, symName: __ZNSt3__116reverse_iteratorIPNS_5tupleIJiiiEEEEC2B8ue170006ES3_, symObjAddr: 0x9C20, symBinAddr: 0x10000A700, symSize: 0x30 }
  - { offsetInCU: 0x1B265, offset: 0x1B265, size: 0x8, addend: 0x0, symName: __ZNSt3__118__unwrap_iter_implIPNS_5tupleIJiiiEEELb1EE8__unwrapB8ue170006ES3_, symObjAddr: 0x9C50, symBinAddr: 0x10000A730, symSize: 0x20 }
  - { offsetInCU: 0x1B288, offset: 0x1B288, size: 0x8, addend: 0x0, symName: __ZNSt3__118__unwrap_iter_implIPNS_5tupleIJiiiEEELb1EE8__rewrapB8ue170006ES3_S3_, symObjAddr: 0x9C70, symBinAddr: 0x10000A750, symSize: 0x60 }
  - { offsetInCU: 0x1B2B9, offset: 0x1B2B9, size: 0x8, addend: 0x0, symName: __ZNSt3__16vectorINS_5tupleIJiiiEEENS_9allocatorIS2_EEE21_ConstructTransactionD2B8ue170006Ev, symObjAddr: 0x9CD0, symBinAddr: 0x10000A7B0, symSize: 0x20 }
  - { offsetInCU: 0x1B2E3, offset: 0x1B2E3, size: 0x8, addend: 0x0, symName: __ZNSt3__128__exception_guard_exceptionsINS_6vectorINS_5tupleIJiiiEEENS_9allocatorIS3_EEE16__destroy_vectorEED2B8ue170006Ev, symObjAddr: 0x9CF0, symBinAddr: 0x10000A7D0, symSize: 0x40 }
  - { offsetInCU: 0x1B30D, offset: 0x1B30D, size: 0x8, addend: 0x0, symName: __ZNSt3__16vectorINS_5tupleIJiiiEEENS_9allocatorIS2_EEE16__destroy_vectorclB8ue170006Ev, symObjAddr: 0x9D30, symBinAddr: 0x10000A810, symSize: 0x80 }
  - { offsetInCU: 0x1B333, offset: 0x1B333, size: 0x8, addend: 0x0, symName: __ZNSt3__16vectorINS_5tupleIJiiiEEENS_9allocatorIS2_EEE7__clearB8ue170006Ev, symObjAddr: 0x9DB0, symBinAddr: 0x10000A890, symSize: 0x20 }
  - { offsetInCU: 0x1B359, offset: 0x1B359, size: 0x8, addend: 0x0, symName: __ZNKSt3__16vectorINS_5tupleIJiiiEEENS_9allocatorIS2_EEE17__annotate_deleteB8ue170006Ev, symObjAddr: 0x9DD0, symBinAddr: 0x10000A8B0, symSize: 0xB0 }
  - { offsetInCU: 0x1B37F, offset: 0x1B37F, size: 0x8, addend: 0x0, symName: __ZNSt3__116allocator_traitsINS_9allocatorINS_5tupleIJiiiEEEEEE10deallocateB8ue170006ERS4_PS3_m, symObjAddr: 0x9E80, symBinAddr: 0x10000A960, symSize: 0x30 }
  - { offsetInCU: 0x1B3C1, offset: 0x1B3C1, size: 0x8, addend: 0x0, symName: __ZNSt3__16vectorINS_5tupleIJiiiEEENS_9allocatorIS2_EEE22__base_destruct_at_endB8ue170006EPS2_, symObjAddr: 0x9EB0, symBinAddr: 0x10000A990, symSize: 0x80 }
  - { offsetInCU: 0x1B405, offset: 0x1B405, size: 0x8, addend: 0x0, symName: __ZNKSt3__16vectorINS_5tupleIJiiiEEENS_9allocatorIS2_EEE4sizeB8ue170006Ev, symObjAddr: 0x9F30, symBinAddr: 0x10000AA10, symSize: 0x30 }
  - { offsetInCU: 0x1B42B, offset: 0x1B42B, size: 0x8, addend: 0x0, symName: __ZNSt3__19allocatorINS_5tupleIJiiiEEEE10deallocateB8ue170006EPS2_m, symObjAddr: 0x9F60, symBinAddr: 0x10000AA40, symSize: 0x50 }
  - { offsetInCU: 0x1B46D, offset: 0x1B46D, size: 0x8, addend: 0x0, symName: __ZNSt3__16vectorINS_5tupleIJiiiEEENS_9allocatorIS2_EEED2B8ue170006Ev, symObjAddr: 0x9FB0, symBinAddr: 0x10000AA90, symSize: 0x40 }
  - { offsetInCU: 0x1B497, offset: 0x1B497, size: 0x8, addend: 0x0, symName: __ZNSt3__16vectorINS_5tupleIJiiiEEENS_9allocatorIS2_EEE11__make_iterB8ue170006EPS2_, symObjAddr: 0x9FF0, symBinAddr: 0x10000AAD0, symSize: 0x30 }
  - { offsetInCU: 0x1B4CC, offset: 0x1B4CC, size: 0x8, addend: 0x0, symName: __ZNSt3__111__wrap_iterIPNS_5tupleIJiiiEEEEC1B8ue170006ES3_, symObjAddr: 0xA020, symBinAddr: 0x10000AB00, symSize: 0x30 }
  - { offsetInCU: 0x1B504, offset: 0x1B504, size: 0x8, addend: 0x0, symName: __ZNSt3__111__wrap_iterIPNS_5tupleIJiiiEEEEC2B8ue170006ES3_, symObjAddr: 0xA050, symBinAddr: 0x10000AB30, symSize: 0x20 }
  - { offsetInCU: 0x1B53C, offset: 0x1B53C, size: 0x8, addend: 0x0, symName: __ZNSt3__16vectorINS_4pairIiiEENS_9allocatorIS2_EEE22__construct_one_at_endB8ue170006IJS2_EEEvDpOT_, symObjAddr: 0xA070, symBinAddr: 0x10000AB50, symSize: 0x90 }
  - { offsetInCU: 0x1B58B, offset: 0x1B58B, size: 0x8, addend: 0x0, symName: __ZNSt3__16vectorINS_4pairIiiEENS_9allocatorIS2_EEE21__push_back_slow_pathIS2_EEvOT_, symObjAddr: 0xA100, symBinAddr: 0x10000ABE0, symSize: 0xD0 }
  - { offsetInCU: 0x1B5E9, offset: 0x1B5E9, size: 0x8, addend: 0x0, symName: __ZNSt3__116allocator_traitsINS_9allocatorINS_4pairIiiEEEEE9constructB8ue170006IS3_JS3_EvEEvRS4_PT_DpOT0_, symObjAddr: 0xA1D0, symBinAddr: 0x10000ACB0, symSize: 0x30 }
  - { offsetInCU: 0x1B640, offset: 0x1B640, size: 0x8, addend: 0x0, symName: __ZNSt3__19allocatorINS_4pairIiiEEE9constructB8ue170006IS2_JS2_EEEvPT_DpOT0_, symObjAddr: 0xA200, symBinAddr: 0x10000ACE0, symSize: 0x20 }
  - { offsetInCU: 0x1B696, offset: 0x1B696, size: 0x8, addend: 0x0, symName: __ZNKSt3__16vectorINS_4pairIiiEENS_9allocatorIS2_EEE11__recommendB8ue170006Em, symObjAddr: 0xA220, symBinAddr: 0x10000AD00, symSize: 0xA0 }
  - { offsetInCU: 0x1B6EB, offset: 0x1B6EB, size: 0x8, addend: 0x0, symName: __ZNSt3__114__split_bufferINS_4pairIiiEERNS_9allocatorIS2_EEEC1EmmS5_, symObjAddr: 0xA2C0, symBinAddr: 0x10000ADA0, symSize: 0x40 }
  - { offsetInCU: 0x1B741, offset: 0x1B741, size: 0x8, addend: 0x0, symName: __ZNSt3__114__split_bufferINS_4pairIiiEERNS_9allocatorIS2_EEED1Ev, symObjAddr: 0xA420, symBinAddr: 0x10000AF00, symSize: 0x20 }
  - { offsetInCU: 0x1B76D, offset: 0x1B76D, size: 0x8, addend: 0x0, symName: __ZNSt3__114__split_bufferINS_4pairIiiEERNS_9allocatorIS2_EEEC2EmmS5_, symObjAddr: 0xA440, symBinAddr: 0x10000AF20, symSize: 0xD0 }
  - { offsetInCU: 0x1B7E0, offset: 0x1B7E0, size: 0x8, addend: 0x0, symName: __ZNSt3__117__compressed_pairIPNS_4pairIiiEERNS_9allocatorIS2_EEEC1B8ue170006IDnS6_EEOT_OT0_, symObjAddr: 0xA510, symBinAddr: 0x10000AFF0, symSize: 0x30 }
  - { offsetInCU: 0x1B838, offset: 0x1B838, size: 0x8, addend: 0x0, symName: __ZNSt3__114__split_bufferINS_4pairIiiEERNS_9allocatorIS2_EEE7__allocB8ue170006Ev, symObjAddr: 0xA540, symBinAddr: 0x10000B020, symSize: 0x20 }
  - { offsetInCU: 0x1B85E, offset: 0x1B85E, size: 0x8, addend: 0x0, symName: __ZNSt3__114__split_bufferINS_4pairIiiEERNS_9allocatorIS2_EEE9__end_capB8ue170006Ev, symObjAddr: 0xA560, symBinAddr: 0x10000B040, symSize: 0x20 }
  - { offsetInCU: 0x1B884, offset: 0x1B884, size: 0x8, addend: 0x0, symName: __ZNSt3__117__compressed_pairIPNS_4pairIiiEERNS_9allocatorIS2_EEEC2B8ue170006IDnS6_EEOT_OT0_, symObjAddr: 0xA580, symBinAddr: 0x10000B060, symSize: 0x40 }
  - { offsetInCU: 0x1B8DC, offset: 0x1B8DC, size: 0x8, addend: 0x0, symName: __ZNSt3__122__compressed_pair_elemIRNS_9allocatorINS_4pairIiiEEEELi1ELb0EEC2B8ue170006IS5_vEEOT_, symObjAddr: 0xA5C0, symBinAddr: 0x10000B0A0, symSize: 0x20 }
  - { offsetInCU: 0x1B91E, offset: 0x1B91E, size: 0x8, addend: 0x0, symName: __ZNSt3__117__compressed_pairIPNS_4pairIiiEERNS_9allocatorIS2_EEE6secondB8ue170006Ev, symObjAddr: 0xA5E0, symBinAddr: 0x10000B0C0, symSize: 0x20 }
  - { offsetInCU: 0x1B944, offset: 0x1B944, size: 0x8, addend: 0x0, symName: __ZNSt3__122__compressed_pair_elemIRNS_9allocatorINS_4pairIiiEEEELi1ELb0EE5__getB8ue170006Ev, symObjAddr: 0xA600, symBinAddr: 0x10000B0E0, symSize: 0x20 }
  - { offsetInCU: 0x1B96A, offset: 0x1B96A, size: 0x8, addend: 0x0, symName: __ZNSt3__117__compressed_pairIPNS_4pairIiiEERNS_9allocatorIS2_EEE5firstB8ue170006Ev, symObjAddr: 0xA620, symBinAddr: 0x10000B100, symSize: 0x20 }
  - { offsetInCU: 0x1B990, offset: 0x1B990, size: 0x8, addend: 0x0, symName: __ZNSt3__129_AllocatorDestroyRangeReverseINS_9allocatorINS_4pairIiiEEEENS_16reverse_iteratorIPS3_EEEC1B8ue170006ERS4_RS7_SA_, symObjAddr: 0xA850, symBinAddr: 0x10000B330, symSize: 0x40 }
  - { offsetInCU: 0x1B9E7, offset: 0x1B9E7, size: 0x8, addend: 0x0, symName: __ZNSt3__128__exception_guard_exceptionsINS_29_AllocatorDestroyRangeReverseINS_9allocatorINS_4pairIiiEEEENS_16reverse_iteratorIPS4_EEEEE10__completeB8ue170006Ev, symObjAddr: 0xA890, symBinAddr: 0x10000B370, symSize: 0x20 }
  - { offsetInCU: 0x1BA0D, offset: 0x1BA0D, size: 0x8, addend: 0x0, symName: __ZNSt3__128__exception_guard_exceptionsINS_29_AllocatorDestroyRangeReverseINS_9allocatorINS_4pairIiiEEEENS_16reverse_iteratorIPS4_EEEEED1B8ue170006Ev, symObjAddr: 0xA8B0, symBinAddr: 0x10000B390, symSize: 0x20 }
  - { offsetInCU: 0x1BA37, offset: 0x1BA37, size: 0x8, addend: 0x0, symName: __ZNSt3__128__exception_guard_exceptionsINS_29_AllocatorDestroyRangeReverseINS_9allocatorINS_4pairIiiEEEENS_16reverse_iteratorIPS4_EEEEEC1B8ue170006ES9_, symObjAddr: 0xA8D0, symBinAddr: 0x10000B3B0, symSize: 0x40 }
  - { offsetInCU: 0x1BA6F, offset: 0x1BA6F, size: 0x8, addend: 0x0, symName: __ZNSt3__128__exception_guard_exceptionsINS_29_AllocatorDestroyRangeReverseINS_9allocatorINS_4pairIiiEEEENS_16reverse_iteratorIPS4_EEEEEC2B8ue170006ES9_, symObjAddr: 0xA910, symBinAddr: 0x10000B3F0, symSize: 0x30 }
  - { offsetInCU: 0x1BAA7, offset: 0x1BAA7, size: 0x8, addend: 0x0, symName: __ZNSt3__129_AllocatorDestroyRangeReverseINS_9allocatorINS_4pairIiiEEEENS_16reverse_iteratorIPS3_EEEC2B8ue170006ERS4_RS7_SA_, symObjAddr: 0xA940, symBinAddr: 0x10000B420, symSize: 0x40 }
  - { offsetInCU: 0x1BAFE, offset: 0x1BAFE, size: 0x8, addend: 0x0, symName: __ZNSt3__128__exception_guard_exceptionsINS_29_AllocatorDestroyRangeReverseINS_9allocatorINS_4pairIiiEEEENS_16reverse_iteratorIPS4_EEEEED2B8ue170006Ev, symObjAddr: 0xA980, symBinAddr: 0x10000B460, symSize: 0x40 }
  - { offsetInCU: 0x1BB28, offset: 0x1BB28, size: 0x8, addend: 0x0, symName: __ZNKSt3__129_AllocatorDestroyRangeReverseINS_9allocatorINS_4pairIiiEEEENS_16reverse_iteratorIPS3_EEEclB8ue170006Ev, symObjAddr: 0xA9C0, symBinAddr: 0x10000B4A0, symSize: 0xF0 }
  - { offsetInCU: 0x1BB4F, offset: 0x1BB4F, size: 0x8, addend: 0x0, symName: __ZNSt3__116reverse_iteratorINS0_IPNS_4pairIiiEEEEEC1B8ue170006ES4_, symObjAddr: 0xAB20, symBinAddr: 0x10000B600, symSize: 0x30 }
  - { offsetInCU: 0x1BB87, offset: 0x1BB87, size: 0x8, addend: 0x0, symName: __ZNSt3__116reverse_iteratorINS0_IPNS_4pairIiiEEEEEppB8ue170006Ev, symObjAddr: 0xABC0, symBinAddr: 0x10000B6A0, symSize: 0x30 }
  - { offsetInCU: 0x1BBAD, offset: 0x1BBAD, size: 0x8, addend: 0x0, symName: __ZNKSt3__116reverse_iteratorINS0_IPNS_4pairIiiEEEEE4baseB8ue170006Ev, symObjAddr: 0xABF0, symBinAddr: 0x10000B6D0, symSize: 0x20 }
  - { offsetInCU: 0x1BBD8, offset: 0x1BBD8, size: 0x8, addend: 0x0, symName: __ZNSt3__119__to_address_helperINS_16reverse_iteratorINS1_IPNS_4pairIiiEEEEEEvE6__callB8ue170006ERKS6_, symObjAddr: 0xAC10, symBinAddr: 0x10000B6F0, symSize: 0x40 }
  - { offsetInCU: 0x1BBFB, offset: 0x1BBFB, size: 0x8, addend: 0x0, symName: __ZNKSt3__116reverse_iteratorINS0_IPNS_4pairIiiEEEEEptB8ue170006Ev, symObjAddr: 0xAC50, symBinAddr: 0x10000B730, symSize: 0x20 }
  - { offsetInCU: 0x1BC21, offset: 0x1BC21, size: 0x8, addend: 0x0, symName: __ZNKSt3__116reverse_iteratorINS0_IPNS_4pairIiiEEEEEdeB8ue170006Ev, symObjAddr: 0xAC70, symBinAddr: 0x10000B750, symSize: 0x40 }
  - { offsetInCU: 0x1BC55, offset: 0x1BC55, size: 0x8, addend: 0x0, symName: __ZNSt3__116reverse_iteratorIPNS_4pairIiiEEEmmB8ue170006Ev, symObjAddr: 0xACB0, symBinAddr: 0x10000B790, symSize: 0x20 }
  - { offsetInCU: 0x1BC7B, offset: 0x1BC7B, size: 0x8, addend: 0x0, symName: __ZNSt3__116reverse_iteratorINS0_IPNS_4pairIiiEEEEEC2B8ue170006ES4_, symObjAddr: 0xACD0, symBinAddr: 0x10000B7B0, symSize: 0x40 }
  - { offsetInCU: 0x1BCB3, offset: 0x1BCB3, size: 0x8, addend: 0x0, symName: __ZNSt3__114__split_bufferINS_4pairIiiEERNS_9allocatorIS2_EEED2Ev, symObjAddr: 0xAD10, symBinAddr: 0x10000B7F0, symSize: 0x70 }
  - { offsetInCU: 0x1BCDF, offset: 0x1BCDF, size: 0x8, addend: 0x0, symName: __ZNSt3__114__split_bufferINS_4pairIiiEERNS_9allocatorIS2_EEE5clearB8ue170006Ev, symObjAddr: 0xAD80, symBinAddr: 0x10000B860, symSize: 0x20 }
  - { offsetInCU: 0x1BD05, offset: 0x1BD05, size: 0x8, addend: 0x0, symName: __ZNKSt3__114__split_bufferINS_4pairIiiEERNS_9allocatorIS2_EEE8capacityB8ue170006Ev, symObjAddr: 0xADA0, symBinAddr: 0x10000B880, symSize: 0x30 }
  - { offsetInCU: 0x1BD2B, offset: 0x1BD2B, size: 0x8, addend: 0x0, symName: __ZNSt3__114__split_bufferINS_4pairIiiEERNS_9allocatorIS2_EEE17__destruct_at_endB8ue170006EPS2_, symObjAddr: 0xADD0, symBinAddr: 0x10000B8B0, symSize: 0x30 }
  - { offsetInCU: 0x1BD5F, offset: 0x1BD5F, size: 0x8, addend: 0x0, symName: __ZNSt3__114__split_bufferINS_4pairIiiEERNS_9allocatorIS2_EEE17__destruct_at_endB8ue170006EPS2_NS_17integral_constantIbLb0EEE, symObjAddr: 0xAE00, symBinAddr: 0x10000B8E0, symSize: 0x80 }
  - { offsetInCU: 0x1BD9F, offset: 0x1BD9F, size: 0x8, addend: 0x0, symName: __ZNKSt3__114__split_bufferINS_4pairIiiEERNS_9allocatorIS2_EEE9__end_capB8ue170006Ev, symObjAddr: 0xAE80, symBinAddr: 0x10000B960, symSize: 0x20 }
  - { offsetInCU: 0x1BDC5, offset: 0x1BDC5, size: 0x8, addend: 0x0, symName: __ZNKSt3__117__compressed_pairIPNS_4pairIiiEERNS_9allocatorIS2_EEE5firstB8ue170006Ev, symObjAddr: 0xAEA0, symBinAddr: 0x10000B980, symSize: 0x20 }
  - { offsetInCU: 0x1BDEB, offset: 0x1BDEB, size: 0x8, addend: 0x0, symName: __ZNSt3__111char_traitsIcE6lengthB8ue170006EPKc, symObjAddr: 0xB0B0, symBinAddr: 0x10000BB90, symSize: 0x30 }
  - { offsetInCU: 0x1BE2C, offset: 0x1BE2C, size: 0x8, addend: 0x0, symName: __ZNKSt3__113basic_ostreamIcNS_11char_traitsIcEEE6sentrycvbB8ue170006Ev, symObjAddr: 0xB0E0, symBinAddr: 0x10000BBC0, symSize: 0x20 }
  - { offsetInCU: 0x1BE52, offset: 0x1BE52, size: 0x8, addend: 0x0, symName: __ZNSt3__119ostreambuf_iteratorIcNS_11char_traitsIcEEEC1B8ue170006ERNS_13basic_ostreamIcS2_EE, symObjAddr: 0xB320, symBinAddr: 0x10000BE00, symSize: 0x30 }
  - { offsetInCU: 0x1BE8A, offset: 0x1BE8A, size: 0x8, addend: 0x0, symName: __ZNKSt3__18ios_base5flagsB8ue170006Ev, symObjAddr: 0xB350, symBinAddr: 0x10000BE30, symSize: 0x20 }
  - { offsetInCU: 0x1BEB2, offset: 0x1BEB2, size: 0x8, addend: 0x0, symName: __ZNKSt3__19basic_iosIcNS_11char_traitsIcEEE4fillB8ue170006Ev, symObjAddr: 0xB370, symBinAddr: 0x10000BE50, symSize: 0x70 }
  - { offsetInCU: 0x1BEDA, offset: 0x1BEDA, size: 0x8, addend: 0x0, symName: __ZNKSt3__119ostreambuf_iteratorIcNS_11char_traitsIcEEE6failedB8ue170006Ev, symObjAddr: 0xB3E0, symBinAddr: 0x10000BEC0, symSize: 0x20 }
  - { offsetInCU: 0x1BF00, offset: 0x1BF00, size: 0x8, addend: 0x0, symName: __ZNSt3__19basic_iosIcNS_11char_traitsIcEEE8setstateB8ue170006Ej, symObjAddr: 0xB400, symBinAddr: 0x10000BEE0, symSize: 0x30 }
  - { offsetInCU: 0x1BF35, offset: 0x1BF35, size: 0x8, addend: 0x0, symName: __ZNKSt3__18ios_base5widthB8ue170006Ev, symObjAddr: 0xB430, symBinAddr: 0x10000BF10, symSize: 0x20 }
  - { offsetInCU: 0x1BF5D, offset: 0x1BF5D, size: 0x8, addend: 0x0, symName: __ZNSt3__115basic_streambufIcNS_11char_traitsIcEEE5sputnB8ue170006EPKcl, symObjAddr: 0xB450, symBinAddr: 0x10000BF30, symSize: 0x30 }
  - { offsetInCU: 0x1BF9F, offset: 0x1BF9F, size: 0x8, addend: 0x0, symName: __ZNSt3__112basic_stringIcNS_11char_traitsIcEENS_9allocatorIcEEEC1B8ue170006Emc, symObjAddr: 0xB480, symBinAddr: 0x10000BF60, symSize: 0x30 }
  - { offsetInCU: 0x1BFE7, offset: 0x1BFE7, size: 0x8, addend: 0x0, symName: __ZNSt3__112basic_stringIcNS_11char_traitsIcEENS_9allocatorIcEEE4dataB8ue170006Ev, symObjAddr: 0xB4B0, symBinAddr: 0x10000BF90, symSize: 0x30 }
  - { offsetInCU: 0x1C00D, offset: 0x1C00D, size: 0x8, addend: 0x0, symName: __ZNSt3__18ios_base5widthB8ue170006El, symObjAddr: 0xB4E0, symBinAddr: 0x10000BFC0, symSize: 0x30 }
  - { offsetInCU: 0x1C053, offset: 0x1C053, size: 0x8, addend: 0x0, symName: __ZNSt3__112basic_stringIcNS_11char_traitsIcEENS_9allocatorIcEEEC2B8ue170006Emc, symObjAddr: 0xB510, symBinAddr: 0x10000BFF0, symSize: 0x50 }
  - { offsetInCU: 0x1C09B, offset: 0x1C09B, size: 0x8, addend: 0x0, symName: __ZNSt3__117__compressed_pairINS_12basic_stringIcNS_11char_traitsIcEENS_9allocatorIcEEE5__repES5_EC1B8ue170006INS_18__default_init_tagESA_EEOT_OT0_, symObjAddr: 0xB560, symBinAddr: 0x10000C040, symSize: 0x30 }
  - { offsetInCU: 0x1C0F3, offset: 0x1C0F3, size: 0x8, addend: 0x0, symName: __ZNSt3__117__compressed_pairINS_12basic_stringIcNS_11char_traitsIcEENS_9allocatorIcEEE5__repES5_EC2B8ue170006INS_18__default_init_tagESA_EEOT_OT0_, symObjAddr: 0xB590, symBinAddr: 0x10000C070, symSize: 0x30 }
  - { offsetInCU: 0x1C14B, offset: 0x1C14B, size: 0x8, addend: 0x0, symName: __ZNSt3__122__compressed_pair_elemINS_12basic_stringIcNS_11char_traitsIcEENS_9allocatorIcEEE5__repELi0ELb0EEC2B8ue170006ENS_18__default_init_tagE, symObjAddr: 0xB5C0, symBinAddr: 0x10000C0A0, symSize: 0x10 }
  - { offsetInCU: 0x1C17F, offset: 0x1C17F, size: 0x8, addend: 0x0, symName: __ZNSt3__122__compressed_pair_elemINS_9allocatorIcEELi1ELb1EEC2B8ue170006ENS_18__default_init_tagE, symObjAddr: 0xB5D0, symBinAddr: 0x10000C0B0, symSize: 0x20 }
  - { offsetInCU: 0x1C1B3, offset: 0x1C1B3, size: 0x8, addend: 0x0, symName: __ZNSt3__19allocatorIcEC2B8ue170006Ev, symObjAddr: 0xB5F0, symBinAddr: 0x10000C0D0, symSize: 0x20 }
  - { offsetInCU: 0x1C1DD, offset: 0x1C1DD, size: 0x8, addend: 0x0, symName: __ZNSt3__116__non_trivial_ifILb1ENS_9allocatorIcEEEC2B8ue170006Ev, symObjAddr: 0xB610, symBinAddr: 0x10000C0F0, symSize: 0x10 }
  - { offsetInCU: 0x1C207, offset: 0x1C207, size: 0x8, addend: 0x0, symName: __ZNSt3__112basic_stringIcNS_11char_traitsIcEENS_9allocatorIcEEE13__get_pointerB8ue170006Ev, symObjAddr: 0xB630, symBinAddr: 0x10000C110, symSize: 0x50 }
  - { offsetInCU: 0x1C22D, offset: 0x1C22D, size: 0x8, addend: 0x0, symName: __ZNKSt3__112basic_stringIcNS_11char_traitsIcEENS_9allocatorIcEEE9__is_longB8ue170006Ev, symObjAddr: 0xB680, symBinAddr: 0x10000C160, symSize: 0x30 }
  - { offsetInCU: 0x1C253, offset: 0x1C253, size: 0x8, addend: 0x0, symName: __ZNSt3__112basic_stringIcNS_11char_traitsIcEENS_9allocatorIcEEE18__get_long_pointerB8ue170006Ev, symObjAddr: 0xB6B0, symBinAddr: 0x10000C190, symSize: 0x20 }
  - { offsetInCU: 0x1C279, offset: 0x1C279, size: 0x8, addend: 0x0, symName: __ZNSt3__112basic_stringIcNS_11char_traitsIcEENS_9allocatorIcEEE19__get_short_pointerB8ue170006Ev, symObjAddr: 0xB6D0, symBinAddr: 0x10000C1B0, symSize: 0x30 }
  - { offsetInCU: 0x1C29F, offset: 0x1C29F, size: 0x8, addend: 0x0, symName: __ZNKSt3__117__compressed_pairINS_12basic_stringIcNS_11char_traitsIcEENS_9allocatorIcEEE5__repES5_E5firstB8ue170006Ev, symObjAddr: 0xB700, symBinAddr: 0x10000C1E0, symSize: 0x20 }
  - { offsetInCU: 0x1C2C5, offset: 0x1C2C5, size: 0x8, addend: 0x0, symName: __ZNKSt3__122__compressed_pair_elemINS_12basic_stringIcNS_11char_traitsIcEENS_9allocatorIcEEE5__repELi0ELb0EE5__getB8ue170006Ev, symObjAddr: 0xB720, symBinAddr: 0x10000C200, symSize: 0x10 }
  - { offsetInCU: 0x1C2EB, offset: 0x1C2EB, size: 0x8, addend: 0x0, symName: __ZNSt3__117__compressed_pairINS_12basic_stringIcNS_11char_traitsIcEENS_9allocatorIcEEE5__repES5_E5firstB8ue170006Ev, symObjAddr: 0xB730, symBinAddr: 0x10000C210, symSize: 0x20 }
  - { offsetInCU: 0x1C311, offset: 0x1C311, size: 0x8, addend: 0x0, symName: __ZNSt3__122__compressed_pair_elemINS_12basic_stringIcNS_11char_traitsIcEENS_9allocatorIcEEE5__repELi0ELb0EE5__getB8ue170006Ev, symObjAddr: 0xB750, symBinAddr: 0x10000C230, symSize: 0x10 }
  - { offsetInCU: 0x1C337, offset: 0x1C337, size: 0x8, addend: 0x0, symName: __ZNSt3__114pointer_traitsIPcE10pointer_toB8ue170006ERc, symObjAddr: 0xB760, symBinAddr: 0x10000C240, symSize: 0x10 }
  - { offsetInCU: 0x1C35A, offset: 0x1C35A, size: 0x8, addend: 0x0, symName: __ZNSt3__119ostreambuf_iteratorIcNS_11char_traitsIcEEEC2B8ue170006ERNS_13basic_ostreamIcS2_EE, symObjAddr: 0xB770, symBinAddr: 0x10000C250, symSize: 0x50 }
  - { offsetInCU: 0x1C392, offset: 0x1C392, size: 0x8, addend: 0x0, symName: __ZNKSt3__19basic_iosIcNS_11char_traitsIcEEE5rdbufB8ue170006Ev, symObjAddr: 0xB7C0, symBinAddr: 0x10000C2A0, symSize: 0x20 }
  - { offsetInCU: 0x1C3BA, offset: 0x1C3BA, size: 0x8, addend: 0x0, symName: __ZNKSt3__18ios_base5rdbufB8ue170006Ev, symObjAddr: 0xB7E0, symBinAddr: 0x10000C2C0, symSize: 0x20 }
  - { offsetInCU: 0x1C3E0, offset: 0x1C3E0, size: 0x8, addend: 0x0, symName: __ZNSt3__111char_traitsIcE11eq_int_typeB8ue170006Eii, symObjAddr: 0xB800, symBinAddr: 0x10000C2E0, symSize: 0x20 }
  - { offsetInCU: 0x1C413, offset: 0x1C413, size: 0x8, addend: 0x0, symName: __ZNSt3__111char_traitsIcE3eofB8ue170006Ev, symObjAddr: 0xB820, symBinAddr: 0x10000C300, symSize: 0x10 }
  - { offsetInCU: 0x1C427, offset: 0x1C427, size: 0x8, addend: 0x0, symName: __ZNKSt3__19basic_iosIcNS_11char_traitsIcEEE5widenB8ue170006Ec, symObjAddr: 0xB830, symBinAddr: 0x10000C310, symSize: 0x80 }
  - { offsetInCU: 0x1C490, offset: 0x1C490, size: 0x8, addend: 0x0, symName: __ZNKSt3__15ctypeIcE5widenB8ue170006Ec, symObjAddr: 0xB8E0, symBinAddr: 0x10000C3C0, symSize: 0x30 }
  - { offsetInCU: 0x1C4C5, offset: 0x1C4C5, size: 0x8, addend: 0x0, symName: __ZNSt3__18ios_base8setstateB8ue170006Ej, symObjAddr: 0xB910, symBinAddr: 0x10000C3F0, symSize: 0x30 }
...
